******************************************************************************
                  TI ARM Linker PC v15.12.3                    
******************************************************************************
>> Linked Sun Mar 12 22:09:22 2017

OUTPUT FILE NAME:   <hid_emu_kbd_cc2650em_app.out>
ENTRY POINT SYMBOL: "ResetISR"  address: 00005eb5


MEMORY CONFIGURATION

         name            origin    length      used     unused   attr    fill
----------------------  --------  ---------  --------  --------  ----  --------
  FLASH                 00000000   0000f000  0000973e  000058c2  R  X
  FLASH_LAST_PAGE       0001f000   00001000  00000058  00000fa8  R  X
  SRAM                  20000000   00004368  000031c9  0000119f  RW X


SEGMENT ALLOCATION MAP

run origin  load origin   length   init length attrs members
----------  ----------- ---------- ----------- ----- -------
00000000    00000000    00009744   00009744    r-x
  00000000    00000000    0000003c   0000003c    r-- .resetVecs
  0000003c    0000003c    000000c4   000000c4    r-x .text.1
  00000100    00000100    0000003c   0000003c    r-- .const:ti_sysbios_knl_Task_Object__PARAMS__C
  0000013c    0000013c    00000034   00000034    r-- .const:ti_sysbios_knl_Mailbox_Object__PARAMS__C
  00000170    00000170    00000030   00000030    r-- .const:ti_sysbios_family_arm_m3_Hwi_Object__PARAMS__C
  000001a0    000001a0    0000002c   0000002c    r-- .const:ti_sysbios_hal_Hwi_Object__PARAMS__C
  000001cc    000001cc    00000028   00000028    r-- .const:ti_sysbios_heaps_HeapMem_Module__FXNS__C
  000001f4    000001f4    00000028   00000028    r-- .const:ti_sysbios_knl_Swi_Object__PARAMS__C
  0000021c    0000021c    00000024   00000024    r-- .const:ti_sysbios_gates_GateHwi_Module__FXNS__C
  00000240    00000240    00000024   00000024    r-- .const:ti_sysbios_gates_GateMutex_Module__FXNS__C
  00000264    00000264    00000024   00000024    r-- .const:ti_sysbios_heaps_HeapMem_Object__PARAMS__C
  00000288    00000288    00000024   00000024    r-- .const:ti_sysbios_knl_Clock_Object__PARAMS__C
  000002ac    000002ac    00000024   00000024    r-- .const:ti_sysbios_knl_Semaphore_Object__PARAMS__C
  000002d0    000002d0    00000020   00000020    r-- .const:ti_sysbios_family_arm_m3_Hwi_Object__DESC__C
  000002f0    000002f0    00000020   00000020    r-- .const:ti_sysbios_gates_GateHwi_Object__DESC__C
  00000310    00000310    00000020   00000020    r-- .const:ti_sysbios_gates_GateMutex_Object__DESC__C
  00000330    00000330    00000020   00000020    r-- .const:ti_sysbios_hal_Hwi_Object__DESC__C
  00000350    00000350    00000020   00000020    r-- .const:ti_sysbios_heaps_HeapMem_Object__DESC__C
  00000370    00000370    00000020   00000020    r-- .const:ti_sysbios_knl_Clock_Object__DESC__C
  00000390    00000390    00000020   00000020    r-- .const:ti_sysbios_knl_Mailbox_Object__DESC__C
  000003b0    000003b0    00000020   00000020    r-- .const:ti_sysbios_knl_Queue_Object__DESC__C
  000003d0    000003d0    00000020   00000020    r-- .const:ti_sysbios_knl_Semaphore_Object__DESC__C
  000003f0    000003f0    00000020   00000020    r-- .const:ti_sysbios_knl_Swi_Object__DESC__C
  00000410    00000410    00000020   00000020    r-- .const:ti_sysbios_knl_Task_Object__DESC__C
  00000430    00000430    00000018   00000018    r-- .const:ti_sysbios_gates_GateHwi_Object__PARAMS__C
  00000448    00000448    00000018   00000018    r-- .const:ti_sysbios_gates_GateMutex_Object__PARAMS__C
  00000460    00000460    00000018   00000018    r-- .const:ti_sysbios_knl_Queue_Object__PARAMS__C
  00000478    00000478    00000008   00000008    r-- .const:ti_sysbios_knl_Idle_funcList__C
  00000480    00000480    00000004   00000004    r-x .text.2
  00000484    00000484    00000004   00000004    r-- .const:ti_sysbios_family_arm_cc26xx_Timer_startupNeeded__C
  00000488    00000488    00000004   00000004    r-- .const:ti_sysbios_family_arm_m3_Hwi_E_alreadyDefined__C
  0000048c    0000048c    00000004   00000004    r-- .const:ti_sysbios_family_arm_m3_Hwi_E_hwiLimitExceeded__C
  00000490    00000490    00000004   00000004    r-- .const:ti_sysbios_family_arm_m3_Hwi_NUM_INTERRUPTS__C
  00000494    00000494    00000004   00000004    r-- .const:ti_sysbios_family_arm_m3_Hwi_Object__count__C
  00000498    00000498    00000004   00000004    r-- .const:ti_sysbios_family_arm_m3_Hwi_Object__table__C
  0000049c    0000049c    00000004   00000004    r-- .const:ti_sysbios_family_arm_m3_Hwi_ccr__C
  000004a0    000004a0    00000004   00000004    r-- .const:ti_sysbios_family_arm_m3_Hwi_excHandlerFunc__C
  000004a4    000004a4    00000004   00000004    r-- .const:ti_sysbios_family_arm_m3_Hwi_nullIsrFunc__C
  000004a8    000004a8    00000004   00000004    r-- .const:ti_sysbios_family_arm_m3_Hwi_numSparseInterrupts__C
  000004ac    000004ac    00000004   00000004    r-- .const:ti_sysbios_family_arm_m3_Hwi_priGroup__C
  000004b0    000004b0    00000004   00000004    r-- .const:ti_sysbios_family_arm_m3_TaskSupport_stackAlignment__C
  000004b4    000004b4    00000004   00000004    r-- .const:ti_sysbios_heaps_HeapMem_E_memory__C
  000004b8    000004b8    00000004   00000004    r-- .const:ti_sysbios_heaps_HeapMem_Module__gateObj__C
  000004bc    000004bc    00000004   00000004    r-- .const:ti_sysbios_heaps_HeapMem_Object__count__C
  000004c0    000004c0    00000004   00000004    r-- .const:ti_sysbios_heaps_HeapMem_Object__table__C
  000004c4    000004c4    00000004   00000004    r-- .const:ti_sysbios_heaps_HeapMem_reqAlign__C
  000004c8    000004c8    00000004   00000004    r-- .const:ti_sysbios_knl_Clock_serviceMargin__C
  000004cc    000004cc    00000004   00000004    r-- .const:ti_sysbios_knl_Mailbox_Object__count__C
  000004d0    000004d0    00000004   00000004    r-- .const:ti_sysbios_knl_Mailbox_Object__table__C
  000004d4    000004d4    00000004   00000004    r-- .const:ti_sysbios_knl_Queue_Object__count__C
  000004d8    000004d8    00000004   00000004    r-- .const:ti_sysbios_knl_Queue_Object__table__C
  000004dc    000004dc    00000004   00000004    r-- .const:ti_sysbios_knl_Swi_Object__count__C
  000004e0    000004e0    00000004   00000004    r-- .const:ti_sysbios_knl_Swi_Object__table__C
  000004e4    000004e4    00000004   00000004    r-- .const:ti_sysbios_knl_Swi_numPriorities__C
  000004e8    000004e8    00000004   00000004    r-- .const:ti_sysbios_knl_Task_Object__count__C
  000004ec    000004ec    00000004   00000004    r-- .const:ti_sysbios_knl_Task_Object__table__C
  000004f0    000004f0    00000004   00000004    r-- .const:ti_sysbios_knl_Task_allBlockedFunc__C
  000004f4    000004f4    00000004   00000004    r-- .const:ti_sysbios_knl_Task_defaultStackHeap__C
  000004f8    000004f8    00000004   00000004    r-- .const:ti_sysbios_knl_Task_defaultStackSize__C
  000004fc    000004fc    00000004   00000004    r-- .const:ti_sysbios_knl_Task_numConstructedTasks__C
  00000500    00000500    00000002   00000002    r-x .text.3
  00000502    00000502    00000002   00000002    r-- .const:ti_sysbios_family_arm_cc26xx_Timer_Module__id__C
  00000504    00000504    00000002   00000002    r-- .const:ti_sysbios_family_arm_cc26xx_TimestampProvider_useClockTimer__C
  00000506    00000506    00000002   00000002    r-- .const:ti_sysbios_family_arm_m3_Hwi_Module__id__C
  00000508    00000508    00000002   00000002    r-- .const:ti_sysbios_gates_GateHwi_Module__id__C
  0000050a    0000050a    00000002   00000002    r-- .const:ti_sysbios_gates_GateMutex_Module__id__C
  0000050c    0000050c    00000002   00000002    r-- .const:ti_sysbios_heaps_HeapMem_Module__id__C
  0000050e    0000050e    00000002   00000002    r-- .const:ti_sysbios_knl_Task_initStackFlag__C
  00000510    00000510    00000001   00000001    r-- .const:ti_sysbios_knl_Clock_tickMode__C
  00000514    00000514    00000008   00000008    r-- .const:xdc_runtime_Startup_firstFxns__C
  0000051c    0000051c    00000008   00000008    r-- .const:xdc_runtime_Startup_lastFxns__C
  00000524    00000524    00000004   00000004    r-- .const:xdc_runtime_Assert_E_assertFailed__C
  00000528    00000528    00000004   00000004    r-- .const:xdc_runtime_Error_E_memory__C
  0000052c    0000052c    00000004   00000004    r-- .const:xdc_runtime_Error_policyFxn__C
  00000530    00000530    00000004   00000004    r-- .const:xdc_runtime_IGateProvider_Interface__BASE__C
  00000534    00000534    00000004   00000004    r-- .const:xdc_runtime_IHeap_Interface__BASE__C
  00000538    00000538    00000004   00000004    r-- .const:xdc_runtime_IModule_Interface__BASE__C
  0000053c    0000053c    00000004   00000004    r-- .const:xdc_runtime_Main_Module__diagsEnabled__C
  00000540    00000540    00000004   00000004    r-- .const:xdc_runtime_Main_Module__diagsIncluded__C
  00000544    00000544    00000004   00000004    r-- .const:xdc_runtime_Main_Module__diagsMask__C
  00000548    00000548    00000004   00000004    r-- .const:xdc_runtime_Memory_defaultHeapInstance__C
  0000054c    0000054c    00000004   00000004    r-- .const:xdc_runtime_Startup_execImpl__C
  00000550    00000550    00000004   00000004    r-- .const:xdc_runtime_Startup_maxPasses__C
  00000554    00000554    00000004   00000004    r-- .const:xdc_runtime_Startup_sfxnRts__C
  00000558    00000558    00000004   00000004    r-- .const:xdc_runtime_Startup_sfxnTab__C
  0000055c    0000055c    00000004   00000004    r-- .const:xdc_runtime_Startup_startModsFxn__C
  00000560    00000560    00000004   00000004    r-- .const:xdc_runtime_SysCallback_abortFxn__C
  00000564    00000564    00000004   00000004    r-- .const:xdc_runtime_SysCallback_exitFxn__C
  00000568    00000568    00000004   00000004    r-- .const:xdc_runtime_System_abortFxn__C
  0000056c    0000056c    00000004   00000004    r-- .const:xdc_runtime_System_exitFxn__C
  00000570    00000570    00000004   00000004    r-- .const:xdc_runtime_System_maxAtexitHandlers__C
  00000574    00000574    00000004   00000004    r-- .const:xdc_runtime_Text_charTab__C
  00000578    00000578    00000004   00000004    r-- .const:xdc_runtime_Text_nameEmpty__C
  0000057c    0000057c    00000004   00000004    r-- .const:xdc_runtime_Text_nameStatic__C
  00000580    00000580    00000004   00000004    r-- .const:xdc_runtime_Text_nameUnknown__C
  00000584    00000584    00000002   00000002    r-- .const:xdc_runtime_Main_Module__id__C
  00000586    00000586    00000002   00000002    r-- .const:xdc_runtime_Memory_Module__id__C
  00000588    00000588    00000002   00000002    r-- .const:xdc_runtime_Text_charCnt__C
  0000058a    0000058a    00000002   00000002    r-- .const:xdc_runtime_Text_isLoaded__C
  0000058c    0000058c    00000001   00000001    r-- .const:xdc_runtime_Error_policy__C
  00000590    00000590    00000004   00000004    r-- .const:ti_sysbios_rom_ROM_AONRTCChannelEnable
  00000594    00000594    00000004   00000004    r-- .const:ti_sysbios_rom_ROM_AONRTCCompareValueSet
  00000598    00000598    00000004   00000004    r-- .const:ti_sysbios_rom_ROM_AONRTCCurrentCompareValueGet
  0000059c    0000059c    00000004   00000004    r-- .const:ti_sysbios_rom_ROM_AONRTCEventClear
  000005a0    000005a0    00000004   00000004    r-- .const:ti_sysbios_rom_ROM_ti_sysbios_family_arm_cc26xx_Timer_getCount64__E
  000005a4    000005a4    00000004   00000004    r-- .const:ti_sysbios_rom_ROM_ti_sysbios_family_arm_cc26xx_Timer_getCurrentTick__E
  000005a8    000005a8    00000004   00000004    r-- .const:ti_sysbios_rom_ROM_ti_sysbios_family_arm_cc26xx_Timer_getMaxTicks__E
  000005ac    000005ac    00000004   00000004    r-- .const:ti_sysbios_rom_ROM_ti_sysbios_family_arm_cc26xx_Timer_initDevice__I
  000005b0    000005b0    00000004   00000004    r-- .const:ti_sysbios_rom_ROM_ti_sysbios_family_arm_cc26xx_Timer_setNextTick__E
  000005b4    000005b4    00000004   00000004    r-- .const:ti_sysbios_rom_ROM_ti_sysbios_family_arm_cc26xx_Timer_setThreshold__I
  000005b8    000005b8    00000004   00000004    r-- .const:ti_sysbios_rom_ROM_ti_sysbios_family_arm_cc26xx_Timer_start__E
  000005bc    000005bc    00000004   00000004    r-- .const:ti_sysbios_rom_ROM_ti_sysbios_family_arm_cc26xx_TimestampProvider_get32__E
  000005c0    000005c0    00000004   00000004    r-- .const:ti_sysbios_rom_ROM_xdc_runtime_Startup_getState__I
  000005c4    000005c4    00000004   00000004    r-- .const:ti_sysbios_rom_ROM_xdc_runtime_System_SupportProxy_abort__E
  000005c8    000005c8    00000004   00000004    r-- .const:ti_sysbios_rom_ROM_xdc_runtime_System_SupportProxy_exit__E
  000005cc    000005cc    00000004   00000004    r-- .const:ti_sysbios_gates_GateMutex_Instance_State_sem__O
  000005d0    000005d0    00000004   00000004    r-- .const:ti_sysbios_knl_Clock_Module_State_clockQ__O
  000005d4    000005d4    00000004   00000004    r-- .const:ti_sysbios_knl_Mailbox_Instance_State_dataQue__O
  000005d8    000005d8    00000004   00000004    r-- .const:ti_sysbios_knl_Mailbox_Instance_State_dataSem__O
  000005dc    000005dc    00000004   00000004    r-- .const:ti_sysbios_knl_Mailbox_Instance_State_freeQue__O
  000005e0    000005e0    00000004   00000004    r-- .const:ti_sysbios_knl_Mailbox_Instance_State_freeSem__O
  000005e4    000005e4    00000004   00000004    r-- .const:ti_sysbios_knl_Semaphore_Instance_State_pendQ__O
  000005e8    000005e8    00000004   00000004    r-- .const:ti_sysbios_knl_Task_Module_State_inactiveQ__O
  000005ec    000005ec    000083f4   000083f4    r-x .text.4
  000089e0    000089e0    00000390   00000390    r-- .const
  00008d70    00008d70    000009d4   000009d4    r-- .cinit
0001ffa8    0001ffa8    00000058   00000058    r--
  0001ffa8    0001ffa8    00000058   00000058    r-- .ccfg
20000000    20000000    000000c8   00000000    rw-
  20000000    20000000    000000c8   00000000    rw- .vecs
20000100    20000100    00002d05   00000000    rw-
  20000100    20000100    00000044   00000000    rw- .data:ti_sysbios_knl_Task_Module__state__V
  20000144    20000144    00000034   00000000    rw- .data:ti_sysbios_family_arm_m3_Hwi_Module__state__V
  20000178    20000178    0000002c   00000000    rw- .data:ti_sysbios_knl_Clock_Module__state__V
  200001a4    200001a4    00000024   00000000    rw- .data:ti_sysbios_BIOS_Module__state__V
  200001c8    200001c8    0000001c   00000000    rw- .data:ti_sysbios_knl_Swi_Module__state__V
  200001e4    200001e4    00000008   00000000    rw- .data:ti_sysbios_family_arm_cc26xx_Timer_Module__state__V
  200001ec    200001ec    00000004   00000000    rw- .data:ti_sysbios_family_arm_cc26xx_TimestampProvider_Module__state__V
  200001f0    200001f0    00000008   00000000    rw- .data:xdc_runtime_Startup_Module__state__V
  200001f8    200001f8    00000008   00000000    rw- .data:xdc_runtime_System_Module__state__V
  20000200    20000200    00000004   00000000    rw- .data:xdc_runtime_Memory_Module__state__V
  20000208    20000208    00001c49   00000000    rw- .data
  20001e58    20001e58    00000fad   00000000    rw- .bss
20003f68    20003f68    00000400   00000000    rw-
  20003f68    20003f68    00000400   00000000    rw- .stack


SECTION ALLOCATION MAP

 output                                  attributes/
section   page    origin      length       input sections
--------  ----  ----------  ----------   ----------------
.resetVecs 
*          0    00000000    0000003c     
                  00000000    0000003c     app_ble_pem3.oem3 (.resetVecs)

.text.1    0    0000003c    000000c4     
                  0000003c    000000b8     RF.obj (.text:fsmPowerUpState$8)
                  000000f4    00000008     (.tramp.ti_sysbios_family_arm_m3_Hwi_enableInterrupt__E.1)
                  000000fc    00000004     icall_api.obj (.text:GATTServApp_AddService)

.const:ti_sysbios_knl_Task_Object__PARAMS__C 
*          0    00000100    0000003c     
                  00000100    0000003c     app_ble_pem3.oem3 (.const:ti_sysbios_knl_Task_Object__PARAMS__C)

.const:ti_sysbios_knl_Mailbox_Object__PARAMS__C 
*          0    0000013c    00000034     
                  0000013c    00000034     app_ble_pem3.oem3 (.const:ti_sysbios_knl_Mailbox_Object__PARAMS__C)

.const:ti_sysbios_family_arm_m3_Hwi_Object__PARAMS__C 
*          0    00000170    00000030     
                  00000170    00000030     app_ble_pem3.oem3 (.const:ti_sysbios_family_arm_m3_Hwi_Object__PARAMS__C)

.const:ti_sysbios_hal_Hwi_Object__PARAMS__C 
*          0    000001a0    0000002c     
                  000001a0    0000002c     app_ble_pem3.oem3 (.const:ti_sysbios_hal_Hwi_Object__PARAMS__C)

.const:ti_sysbios_heaps_HeapMem_Module__FXNS__C 
*          0    000001cc    00000028     
                  000001cc    00000028     app_ble_pem3.oem3 (.const:ti_sysbios_heaps_HeapMem_Module__FXNS__C)

.const:ti_sysbios_knl_Swi_Object__PARAMS__C 
*          0    000001f4    00000028     
                  000001f4    00000028     app_ble_pem3.oem3 (.const:ti_sysbios_knl_Swi_Object__PARAMS__C)

.const:ti_sysbios_gates_GateHwi_Module__FXNS__C 
*          0    0000021c    00000024     
                  0000021c    00000024     app_ble_pem3.oem3 (.const:ti_sysbios_gates_GateHwi_Module__FXNS__C)

.const:ti_sysbios_gates_GateMutex_Module__FXNS__C 
*          0    00000240    00000024     
                  00000240    00000024     app_ble_pem3.oem3 (.const:ti_sysbios_gates_GateMutex_Module__FXNS__C)

.const:ti_sysbios_heaps_HeapMem_Object__PARAMS__C 
*          0    00000264    00000024     
                  00000264    00000024     app_ble_pem3.oem3 (.const:ti_sysbios_heaps_HeapMem_Object__PARAMS__C)

.const:ti_sysbios_knl_Clock_Object__PARAMS__C 
*          0    00000288    00000024     
                  00000288    00000024     app_ble_pem3.oem3 (.const:ti_sysbios_knl_Clock_Object__PARAMS__C)

.const:ti_sysbios_knl_Semaphore_Object__PARAMS__C 
*          0    000002ac    00000024     
                  000002ac    00000024     app_ble_pem3.oem3 (.const:ti_sysbios_knl_Semaphore_Object__PARAMS__C)

.const:ti_sysbios_family_arm_m3_Hwi_Object__DESC__C 
*          0    000002d0    00000020     
                  000002d0    00000020     app_ble_pem3.oem3 (.const:ti_sysbios_family_arm_m3_Hwi_Object__DESC__C)

.const:ti_sysbios_gates_GateHwi_Object__DESC__C 
*          0    000002f0    00000020     
                  000002f0    00000020     app_ble_pem3.oem3 (.const:ti_sysbios_gates_GateHwi_Object__DESC__C)

.const:ti_sysbios_gates_GateMutex_Object__DESC__C 
*          0    00000310    00000020     
                  00000310    00000020     app_ble_pem3.oem3 (.const:ti_sysbios_gates_GateMutex_Object__DESC__C)

.const:ti_sysbios_hal_Hwi_Object__DESC__C 
*          0    00000330    00000020     
                  00000330    00000020     app_ble_pem3.oem3 (.const:ti_sysbios_hal_Hwi_Object__DESC__C)

.const:ti_sysbios_heaps_HeapMem_Object__DESC__C 
*          0    00000350    00000020     
                  00000350    00000020     app_ble_pem3.oem3 (.const:ti_sysbios_heaps_HeapMem_Object__DESC__C)

.const:ti_sysbios_knl_Clock_Object__DESC__C 
*          0    00000370    00000020     
                  00000370    00000020     app_ble_pem3.oem3 (.const:ti_sysbios_knl_Clock_Object__DESC__C)

.const:ti_sysbios_knl_Mailbox_Object__DESC__C 
*          0    00000390    00000020     
                  00000390    00000020     app_ble_pem3.oem3 (.const:ti_sysbios_knl_Mailbox_Object__DESC__C)

.const:ti_sysbios_knl_Queue_Object__DESC__C 
*          0    000003b0    00000020     
                  000003b0    00000020     app_ble_pem3.oem3 (.const:ti_sysbios_knl_Queue_Object__DESC__C)

.const:ti_sysbios_knl_Semaphore_Object__DESC__C 
*          0    000003d0    00000020     
                  000003d0    00000020     app_ble_pem3.oem3 (.const:ti_sysbios_knl_Semaphore_Object__DESC__C)

.const:ti_sysbios_knl_Swi_Object__DESC__C 
*          0    000003f0    00000020     
                  000003f0    00000020     app_ble_pem3.oem3 (.const:ti_sysbios_knl_Swi_Object__DESC__C)

.const:ti_sysbios_knl_Task_Object__DESC__C 
*          0    00000410    00000020     
                  00000410    00000020     app_ble_pem3.oem3 (.const:ti_sysbios_knl_Task_Object__DESC__C)

.const:ti_sysbios_gates_GateHwi_Object__PARAMS__C 
*          0    00000430    00000018     
                  00000430    00000018     app_ble_pem3.oem3 (.const:ti_sysbios_gates_GateHwi_Object__PARAMS__C)

.const:ti_sysbios_gates_GateMutex_Object__PARAMS__C 
*          0    00000448    00000018     
                  00000448    00000018     app_ble_pem3.oem3 (.const:ti_sysbios_gates_GateMutex_Object__PARAMS__C)

.const:ti_sysbios_knl_Queue_Object__PARAMS__C 
*          0    00000460    00000018     
                  00000460    00000018     app_ble_pem3.oem3 (.const:ti_sysbios_knl_Queue_Object__PARAMS__C)

.const:ti_sysbios_knl_Idle_funcList__C 
*          0    00000478    00000008     
                  00000478    00000008     app_ble_pem3.oem3 (.const:ti_sysbios_knl_Idle_funcList__C)

.text.2    0    00000480    00000004     
                  00000480    00000004     hidemukbd.obj (.text:HidEmuKbd_keyPressHandler$2)

.const:ti_sysbios_family_arm_cc26xx_Timer_startupNeeded__C 
*          0    00000484    00000004     
                  00000484    00000004     app_ble_pem3.oem3 (.const:ti_sysbios_family_arm_cc26xx_Timer_startupNeeded__C)

.const:ti_sysbios_family_arm_m3_Hwi_E_alreadyDefined__C 
*          0    00000488    00000004     
                  00000488    00000004     app_ble_pem3.oem3 (.const:ti_sysbios_family_arm_m3_Hwi_E_alreadyDefined__C)

.const:ti_sysbios_family_arm_m3_Hwi_E_hwiLimitExceeded__C 
*          0    0000048c    00000004     
                  0000048c    00000004     app_ble_pem3.oem3 (.const:ti_sysbios_family_arm_m3_Hwi_E_hwiLimitExceeded__C)

.const:ti_sysbios_family_arm_m3_Hwi_NUM_INTERRUPTS__C 
*          0    00000490    00000004     
                  00000490    00000004     app_ble_pem3.oem3 (.const:ti_sysbios_family_arm_m3_Hwi_NUM_INTERRUPTS__C)

.const:ti_sysbios_family_arm_m3_Hwi_Object__count__C 
*          0    00000494    00000004     
                  00000494    00000004     app_ble_pem3.oem3 (.const:ti_sysbios_family_arm_m3_Hwi_Object__count__C)

.const:ti_sysbios_family_arm_m3_Hwi_Object__table__C 
*          0    00000498    00000004     
                  00000498    00000004     app_ble_pem3.oem3 (.const:ti_sysbios_family_arm_m3_Hwi_Object__table__C)

.const:ti_sysbios_family_arm_m3_Hwi_ccr__C 
*          0    0000049c    00000004     
                  0000049c    00000004     app_ble_pem3.oem3 (.const:ti_sysbios_family_arm_m3_Hwi_ccr__C)

.const:ti_sysbios_family_arm_m3_Hwi_excHandlerFunc__C 
*          0    000004a0    00000004     
                  000004a0    00000004     app_ble_pem3.oem3 (.const:ti_sysbios_family_arm_m3_Hwi_excHandlerFunc__C)

.const:ti_sysbios_family_arm_m3_Hwi_nullIsrFunc__C 
*          0    000004a4    00000004     
                  000004a4    00000004     app_ble_pem3.oem3 (.const:ti_sysbios_family_arm_m3_Hwi_nullIsrFunc__C)

.const:ti_sysbios_family_arm_m3_Hwi_numSparseInterrupts__C 
*          0    000004a8    00000004     
                  000004a8    00000004     app_ble_pem3.oem3 (.const:ti_sysbios_family_arm_m3_Hwi_numSparseInterrupts__C)

.const:ti_sysbios_family_arm_m3_Hwi_priGroup__C 
*          0    000004ac    00000004     
                  000004ac    00000004     app_ble_pem3.oem3 (.const:ti_sysbios_family_arm_m3_Hwi_priGroup__C)

.const:ti_sysbios_family_arm_m3_TaskSupport_stackAlignment__C 
*          0    000004b0    00000004     
                  000004b0    00000004     app_ble_pem3.oem3 (.const:ti_sysbios_family_arm_m3_TaskSupport_stackAlignment__C)

.const:ti_sysbios_heaps_HeapMem_E_memory__C 
*          0    000004b4    00000004     
                  000004b4    00000004     app_ble_pem3.oem3 (.const:ti_sysbios_heaps_HeapMem_E_memory__C)

.const:ti_sysbios_heaps_HeapMem_Module__gateObj__C 
*          0    000004b8    00000004     
                  000004b8    00000004     app_ble_pem3.oem3 (.const:ti_sysbios_heaps_HeapMem_Module__gateObj__C)

.const:ti_sysbios_heaps_HeapMem_Object__count__C 
*          0    000004bc    00000004     
                  000004bc    00000004     app_ble_pem3.oem3 (.const:ti_sysbios_heaps_HeapMem_Object__count__C)

.const:ti_sysbios_heaps_HeapMem_Object__table__C 
*          0    000004c0    00000004     
                  000004c0    00000004     app_ble_pem3.oem3 (.const:ti_sysbios_heaps_HeapMem_Object__table__C)

.const:ti_sysbios_heaps_HeapMem_reqAlign__C 
*          0    000004c4    00000004     
                  000004c4    00000004     app_ble_pem3.oem3 (.const:ti_sysbios_heaps_HeapMem_reqAlign__C)

.const:ti_sysbios_knl_Clock_serviceMargin__C 
*          0    000004c8    00000004     
                  000004c8    00000004     app_ble_pem3.oem3 (.const:ti_sysbios_knl_Clock_serviceMargin__C)

.const:ti_sysbios_knl_Mailbox_Object__count__C 
*          0    000004cc    00000004     
                  000004cc    00000004     app_ble_pem3.oem3 (.const:ti_sysbios_knl_Mailbox_Object__count__C)

.const:ti_sysbios_knl_Mailbox_Object__table__C 
*          0    000004d0    00000004     
                  000004d0    00000004     app_ble_pem3.oem3 (.const:ti_sysbios_knl_Mailbox_Object__table__C)

.const:ti_sysbios_knl_Queue_Object__count__C 
*          0    000004d4    00000004     
                  000004d4    00000004     app_ble_pem3.oem3 (.const:ti_sysbios_knl_Queue_Object__count__C)

.const:ti_sysbios_knl_Queue_Object__table__C 
*          0    000004d8    00000004     
                  000004d8    00000004     app_ble_pem3.oem3 (.const:ti_sysbios_knl_Queue_Object__table__C)

.const:ti_sysbios_knl_Swi_Object__count__C 
*          0    000004dc    00000004     
                  000004dc    00000004     app_ble_pem3.oem3 (.const:ti_sysbios_knl_Swi_Object__count__C)

.const:ti_sysbios_knl_Swi_Object__table__C 
*          0    000004e0    00000004     
                  000004e0    00000004     app_ble_pem3.oem3 (.const:ti_sysbios_knl_Swi_Object__table__C)

.const:ti_sysbios_knl_Swi_numPriorities__C 
*          0    000004e4    00000004     
                  000004e4    00000004     app_ble_pem3.oem3 (.const:ti_sysbios_knl_Swi_numPriorities__C)

.const:ti_sysbios_knl_Task_Object__count__C 
*          0    000004e8    00000004     
                  000004e8    00000004     app_ble_pem3.oem3 (.const:ti_sysbios_knl_Task_Object__count__C)

.const:ti_sysbios_knl_Task_Object__table__C 
*          0    000004ec    00000004     
                  000004ec    00000004     app_ble_pem3.oem3 (.const:ti_sysbios_knl_Task_Object__table__C)

.const:ti_sysbios_knl_Task_allBlockedFunc__C 
*          0    000004f0    00000004     
                  000004f0    00000004     app_ble_pem3.oem3 (.const:ti_sysbios_knl_Task_allBlockedFunc__C)

.const:ti_sysbios_knl_Task_defaultStackHeap__C 
*          0    000004f4    00000004     
                  000004f4    00000004     app_ble_pem3.oem3 (.const:ti_sysbios_knl_Task_defaultStackHeap__C)

.const:ti_sysbios_knl_Task_defaultStackSize__C 
*          0    000004f8    00000004     
                  000004f8    00000004     app_ble_pem3.oem3 (.const:ti_sysbios_knl_Task_defaultStackSize__C)

.const:ti_sysbios_knl_Task_numConstructedTasks__C 
*          0    000004fc    00000004     
                  000004fc    00000004     app_ble_pem3.oem3 (.const:ti_sysbios_knl_Task_numConstructedTasks__C)

.text.3    0    00000500    00000002     
                  00000500    00000002     ble_user_config.obj (.text:DefaultAssertCback)

.const:ti_sysbios_family_arm_cc26xx_Timer_Module__id__C 
*          0    00000502    00000002     
                  00000502    00000002     app_ble_pem3.oem3 (.const:ti_sysbios_family_arm_cc26xx_Timer_Module__id__C)

.const:ti_sysbios_family_arm_cc26xx_TimestampProvider_useClockTimer__C 
*          0    00000504    00000002     
                  00000504    00000002     app_ble_pem3.oem3 (.const:ti_sysbios_family_arm_cc26xx_TimestampProvider_useClockTimer__C)

.const:ti_sysbios_family_arm_m3_Hwi_Module__id__C 
*          0    00000506    00000002     
                  00000506    00000002     app_ble_pem3.oem3 (.const:ti_sysbios_family_arm_m3_Hwi_Module__id__C)

.const:ti_sysbios_gates_GateHwi_Module__id__C 
*          0    00000508    00000002     
                  00000508    00000002     app_ble_pem3.oem3 (.const:ti_sysbios_gates_GateHwi_Module__id__C)

.const:ti_sysbios_gates_GateMutex_Module__id__C 
*          0    0000050a    00000002     
                  0000050a    00000002     app_ble_pem3.oem3 (.const:ti_sysbios_gates_GateMutex_Module__id__C)

.const:ti_sysbios_heaps_HeapMem_Module__id__C 
*          0    0000050c    00000002     
                  0000050c    00000002     app_ble_pem3.oem3 (.const:ti_sysbios_heaps_HeapMem_Module__id__C)

.const:ti_sysbios_knl_Task_initStackFlag__C 
*          0    0000050e    00000002     
                  0000050e    00000002     app_ble_pem3.oem3 (.const:ti_sysbios_knl_Task_initStackFlag__C)

.const:ti_sysbios_knl_Clock_tickMode__C 
*          0    00000510    00000001     
                  00000510    00000001     app_ble_pem3.oem3 (.const:ti_sysbios_knl_Clock_tickMode__C)

.const:xdc_runtime_Startup_firstFxns__C 
*          0    00000514    00000008     
                  00000514    00000008     app_ble_pem3.oem3 (.const:xdc_runtime_Startup_firstFxns__C)

.const:xdc_runtime_Startup_lastFxns__C 
*          0    0000051c    00000008     
                  0000051c    00000008     app_ble_pem3.oem3 (.const:xdc_runtime_Startup_lastFxns__C)

.const:xdc_runtime_Assert_E_assertFailed__C 
*          0    00000524    00000004     
                  00000524    00000004     app_ble_pem3.oem3 (.const:xdc_runtime_Assert_E_assertFailed__C)

.const:xdc_runtime_Error_E_memory__C 
*          0    00000528    00000004     
                  00000528    00000004     app_ble_pem3.oem3 (.const:xdc_runtime_Error_E_memory__C)

.const:xdc_runtime_Error_policyFxn__C 
*          0    0000052c    00000004     
                  0000052c    00000004     app_ble_pem3.oem3 (.const:xdc_runtime_Error_policyFxn__C)

.const:xdc_runtime_IGateProvider_Interface__BASE__C 
*          0    00000530    00000004     
                  00000530    00000004     app_ble_pem3.oem3 (.const:xdc_runtime_IGateProvider_Interface__BASE__C)

.const:xdc_runtime_IHeap_Interface__BASE__C 
*          0    00000534    00000004     
                  00000534    00000004     app_ble_pem3.oem3 (.const:xdc_runtime_IHeap_Interface__BASE__C)

.const:xdc_runtime_IModule_Interface__BASE__C 
*          0    00000538    00000004     
                  00000538    00000004     app_ble_pem3.oem3 (.const:xdc_runtime_IModule_Interface__BASE__C)

.const:xdc_runtime_Main_Module__diagsEnabled__C 
*          0    0000053c    00000004     
                  0000053c    00000004     app_ble_pem3.oem3 (.const:xdc_runtime_Main_Module__diagsEnabled__C)

.const:xdc_runtime_Main_Module__diagsIncluded__C 
*          0    00000540    00000004     
                  00000540    00000004     app_ble_pem3.oem3 (.const:xdc_runtime_Main_Module__diagsIncluded__C)

.const:xdc_runtime_Main_Module__diagsMask__C 
*          0    00000544    00000004     
                  00000544    00000004     app_ble_pem3.oem3 (.const:xdc_runtime_Main_Module__diagsMask__C)

.const:xdc_runtime_Memory_defaultHeapInstance__C 
*          0    00000548    00000004     
                  00000548    00000004     app_ble_pem3.oem3 (.const:xdc_runtime_Memory_defaultHeapInstance__C)

.const:xdc_runtime_Startup_execImpl__C 
*          0    0000054c    00000004     
                  0000054c    00000004     app_ble_pem3.oem3 (.const:xdc_runtime_Startup_execImpl__C)

.const:xdc_runtime_Startup_maxPasses__C 
*          0    00000550    00000004     
                  00000550    00000004     app_ble_pem3.oem3 (.const:xdc_runtime_Startup_maxPasses__C)

.const:xdc_runtime_Startup_sfxnRts__C 
*          0    00000554    00000004     
                  00000554    00000004     app_ble_pem3.oem3 (.const:xdc_runtime_Startup_sfxnRts__C)

.const:xdc_runtime_Startup_sfxnTab__C 
*          0    00000558    00000004     
                  00000558    00000004     app_ble_pem3.oem3 (.const:xdc_runtime_Startup_sfxnTab__C)

.const:xdc_runtime_Startup_startModsFxn__C 
*          0    0000055c    00000004     
                  0000055c    00000004     app_ble_pem3.oem3 (.const:xdc_runtime_Startup_startModsFxn__C)

.const:xdc_runtime_SysCallback_abortFxn__C 
*          0    00000560    00000004     
                  00000560    00000004     app_ble_pem3.oem3 (.const:xdc_runtime_SysCallback_abortFxn__C)

.const:xdc_runtime_SysCallback_exitFxn__C 
*          0    00000564    00000004     
                  00000564    00000004     app_ble_pem3.oem3 (.const:xdc_runtime_SysCallback_exitFxn__C)

.const:xdc_runtime_System_abortFxn__C 
*          0    00000568    00000004     
                  00000568    00000004     app_ble_pem3.oem3 (.const:xdc_runtime_System_abortFxn__C)

.const:xdc_runtime_System_exitFxn__C 
*          0    0000056c    00000004     
                  0000056c    00000004     app_ble_pem3.oem3 (.const:xdc_runtime_System_exitFxn__C)

.const:xdc_runtime_System_maxAtexitHandlers__C 
*          0    00000570    00000004     
                  00000570    00000004     app_ble_pem3.oem3 (.const:xdc_runtime_System_maxAtexitHandlers__C)

.const:xdc_runtime_Text_charTab__C 
*          0    00000574    00000004     
                  00000574    00000004     app_ble_pem3.oem3 (.const:xdc_runtime_Text_charTab__C)

.const:xdc_runtime_Text_nameEmpty__C 
*          0    00000578    00000004     
                  00000578    00000004     app_ble_pem3.oem3 (.const:xdc_runtime_Text_nameEmpty__C)

.const:xdc_runtime_Text_nameStatic__C 
*          0    0000057c    00000004     
                  0000057c    00000004     app_ble_pem3.oem3 (.const:xdc_runtime_Text_nameStatic__C)

.const:xdc_runtime_Text_nameUnknown__C 
*          0    00000580    00000004     
                  00000580    00000004     app_ble_pem3.oem3 (.const:xdc_runtime_Text_nameUnknown__C)

.const:xdc_runtime_Main_Module__id__C 
*          0    00000584    00000002     
                  00000584    00000002     app_ble_pem3.oem3 (.const:xdc_runtime_Main_Module__id__C)

.const:xdc_runtime_Memory_Module__id__C 
*          0    00000586    00000002     
                  00000586    00000002     app_ble_pem3.oem3 (.const:xdc_runtime_Memory_Module__id__C)

.const:xdc_runtime_Text_charCnt__C 
*          0    00000588    00000002     
                  00000588    00000002     app_ble_pem3.oem3 (.const:xdc_runtime_Text_charCnt__C)

.const:xdc_runtime_Text_isLoaded__C 
*          0    0000058a    00000002     
                  0000058a    00000002     app_ble_pem3.oem3 (.const:xdc_runtime_Text_isLoaded__C)

.const:xdc_runtime_Error_policy__C 
*          0    0000058c    00000001     
                  0000058c    00000001     app_ble_pem3.oem3 (.const:xdc_runtime_Error_policy__C)

.const:ti_sysbios_rom_ROM_AONRTCChannelEnable 
*          0    00000590    00000004     
                  00000590    00000004     app_ble_pem3.oem3 (.const:ti_sysbios_rom_ROM_AONRTCChannelEnable)

.const:ti_sysbios_rom_ROM_AONRTCCompareValueSet 
*          0    00000594    00000004     
                  00000594    00000004     app_ble_pem3.oem3 (.const:ti_sysbios_rom_ROM_AONRTCCompareValueSet)

.const:ti_sysbios_rom_ROM_AONRTCCurrentCompareValueGet 
*          0    00000598    00000004     
                  00000598    00000004     app_ble_pem3.oem3 (.const:ti_sysbios_rom_ROM_AONRTCCurrentCompareValueGet)

.const:ti_sysbios_rom_ROM_AONRTCEventClear 
*          0    0000059c    00000004     
                  0000059c    00000004     app_ble_pem3.oem3 (.const:ti_sysbios_rom_ROM_AONRTCEventClear)

.const:ti_sysbios_rom_ROM_ti_sysbios_family_arm_cc26xx_Timer_getCount64__E 
*          0    000005a0    00000004     
                  000005a0    00000004     app_ble_pem3.oem3 (.const:ti_sysbios_rom_ROM_ti_sysbios_family_arm_cc26xx_Timer_getCount64__E)

.const:ti_sysbios_rom_ROM_ti_sysbios_family_arm_cc26xx_Timer_getCurrentTick__E 
*          0    000005a4    00000004     
                  000005a4    00000004     app_ble_pem3.oem3 (.const:ti_sysbios_rom_ROM_ti_sysbios_family_arm_cc26xx_Timer_getCurrentTick__E)

.const:ti_sysbios_rom_ROM_ti_sysbios_family_arm_cc26xx_Timer_getMaxTicks__E 
*          0    000005a8    00000004     
                  000005a8    00000004     app_ble_pem3.oem3 (.const:ti_sysbios_rom_ROM_ti_sysbios_family_arm_cc26xx_Timer_getMaxTicks__E)

.const:ti_sysbios_rom_ROM_ti_sysbios_family_arm_cc26xx_Timer_initDevice__I 
*          0    000005ac    00000004     
                  000005ac    00000004     app_ble_pem3.oem3 (.const:ti_sysbios_rom_ROM_ti_sysbios_family_arm_cc26xx_Timer_initDevice__I)

.const:ti_sysbios_rom_ROM_ti_sysbios_family_arm_cc26xx_Timer_setNextTick__E 
*          0    000005b0    00000004     
                  000005b0    00000004     app_ble_pem3.oem3 (.const:ti_sysbios_rom_ROM_ti_sysbios_family_arm_cc26xx_Timer_setNextTick__E)

.const:ti_sysbios_rom_ROM_ti_sysbios_family_arm_cc26xx_Timer_setThreshold__I 
*          0    000005b4    00000004     
                  000005b4    00000004     app_ble_pem3.oem3 (.const:ti_sysbios_rom_ROM_ti_sysbios_family_arm_cc26xx_Timer_setThreshold__I)

.const:ti_sysbios_rom_ROM_ti_sysbios_family_arm_cc26xx_Timer_start__E 
*          0    000005b8    00000004     
                  000005b8    00000004     app_ble_pem3.oem3 (.const:ti_sysbios_rom_ROM_ti_sysbios_family_arm_cc26xx_Timer_start__E)

.const:ti_sysbios_rom_ROM_ti_sysbios_family_arm_cc26xx_TimestampProvider_get32__E 
*          0    000005bc    00000004     
                  000005bc    00000004     app_ble_pem3.oem3 (.const:ti_sysbios_rom_ROM_ti_sysbios_family_arm_cc26xx_TimestampProvider_get32__E)

.const:ti_sysbios_rom_ROM_xdc_runtime_Startup_getState__I 
*          0    000005c0    00000004     
                  000005c0    00000004     app_ble_pem3.oem3 (.const:ti_sysbios_rom_ROM_xdc_runtime_Startup_getState__I)

.const:ti_sysbios_rom_ROM_xdc_runtime_System_SupportProxy_abort__E 
*          0    000005c4    00000004     
                  000005c4    00000004     app_ble_pem3.oem3 (.const:ti_sysbios_rom_ROM_xdc_runtime_System_SupportProxy_abort__E)

.const:ti_sysbios_rom_ROM_xdc_runtime_System_SupportProxy_exit__E 
*          0    000005c8    00000004     
                  000005c8    00000004     app_ble_pem3.oem3 (.const:ti_sysbios_rom_ROM_xdc_runtime_System_SupportProxy_exit__E)

.const:ti_sysbios_gates_GateMutex_Instance_State_sem__O 
*          0    000005cc    00000004     
                  000005cc    00000004     app_ble_pem3.oem3 (.const:ti_sysbios_gates_GateMutex_Instance_State_sem__O)

.const:ti_sysbios_knl_Clock_Module_State_clockQ__O 
*          0    000005d0    00000004     
                  000005d0    00000004     app_ble_pem3.oem3 (.const:ti_sysbios_knl_Clock_Module_State_clockQ__O)

.const:ti_sysbios_knl_Mailbox_Instance_State_dataQue__O 
*          0    000005d4    00000004     
                  000005d4    00000004     app_ble_pem3.oem3 (.const:ti_sysbios_knl_Mailbox_Instance_State_dataQue__O)

.const:ti_sysbios_knl_Mailbox_Instance_State_dataSem__O 
*          0    000005d8    00000004     
                  000005d8    00000004     app_ble_pem3.oem3 (.const:ti_sysbios_knl_Mailbox_Instance_State_dataSem__O)

.const:ti_sysbios_knl_Mailbox_Instance_State_freeQue__O 
*          0    000005dc    00000004     
                  000005dc    00000004     app_ble_pem3.oem3 (.const:ti_sysbios_knl_Mailbox_Instance_State_freeQue__O)

.const:ti_sysbios_knl_Mailbox_Instance_State_freeSem__O 
*          0    000005e0    00000004     
                  000005e0    00000004     app_ble_pem3.oem3 (.const:ti_sysbios_knl_Mailbox_Instance_State_freeSem__O)

.const:ti_sysbios_knl_Semaphore_Instance_State_pendQ__O 
*          0    000005e4    00000004     
                  000005e4    00000004     app_ble_pem3.oem3 (.const:ti_sysbios_knl_Semaphore_Instance_State_pendQ__O)

.const:ti_sysbios_knl_Task_Module_State_inactiveQ__O 
*          0    000005e8    00000004     
                  000005e8    00000004     app_ble_pem3.oem3 (.const:ti_sysbios_knl_Task_Module_State_inactiveQ__O)

.text.4    0    000005ec    000083f4     
                  000005ec    000003d4     driverlib.lib : setup.obj (.text:HapiTrimDeviceShutDown$61)
                  000009c0    00000338     rom_sysbios.aem3 : rom_sysbios.obj (.text:xdc_runtime_System_doPrint__I)
                  00000cf8    000002b4     RF.obj (.text:fsmActiveState$8)
                  00000fac    0000023c     peripheral.obj (.text:GAPRole_SetParameter)
                  000011e8    0000023c     peripheral.obj (.text:gapRole_processGAPMsg$24)
                  00001424    00000228     drivers_cc26xxware.aem3 : PowerCC26XX.oem3 (.text:Power_sleep)
                  0000164c    00000204     driverlib.lib : sys_ctrl.obj (.text:SysCtrlSetRechargeBeforePowerDown)
                  00001850    000001f4     rtsv7M3_T_le_eabi.lib : ull_div_t2.obj (.text)
                  00001a44    000001f0     RF.obj (.text:abortCmd$8)
                  00001c34    000001d0     drivers_cc26xxware.aem3 : PowerCC26XX_calibrateRCOSC.oem3 (.text:calibrateRcoscHf1)
                  00001e04    000001c4     PINCC26XX.obj (.text:PIN_init)
                  00001fc8    000001a0     RF.obj (.text:RF_postCmd)
                  00002168    00000180     drivers_cc26xxware.aem3 : PowerCC26XX_calibrateRCOSC.oem3 (.text:PowerCC26XX_doCalibrate)
                  000022e8    00000140     hidemukbd.obj (.text:HidEmuKbd_init$2)
                  00002428    0000012c     RF.obj (.text:fsmSetupState$8)
                  00002554    00000118     drivers_cc26xxware.aem3 : PowerCC26XX.oem3 (.text:Power_init)
                  0000266c    00000114     hiddev.obj (.text:HidDev_WriteAttrCB)
                  00002780    00000110     hidkbdservice.obj (.text:HidKbd_AddService)
                  00002890    00000110     RF.obj (.text:hwiFxnCpe0Active$8)
                  000029a0    000000fc     peripheral.obj (.text:gapRole_taskFxn$24)
                  00002a9c    000000fc     Keyboard.obj (.text:rxCallback$0)
                  00002b98    000000f8     RF.obj (.text:rf_init$8)
                  00002c90    000000f8     app_ble_pem3.oem3 (.text:xdc_runtime_System_printfExtend__I)
                  00002d88    000000ec     icall.obj (.text:ICall_primWaitMatch$14)
                  00002e74    000000e0     hiddev.obj (.text:HidDev_ReadAttrCB)
                  00002f54    000000e0     hiddev.obj (.text:HidDev_taskFxn$22)
                  00003034    000000d4     drivers_cc26xxware.aem3 : PowerCC26XX.oem3 (.text:Power_releaseDependency)
                  00003108    000000d0                             : PowerCC26XX.oem3 (.text:Power_setDependency)
                  000031d8    000000cc     RF.obj (.text:RF_close)
                  000032a4    000000c0     Keyboard.obj (.text:keyboardTx)
                  00003364    000000c0     RF.obj (.text:swiFxnHw$8)
                  00003424    000000bc     power_cc26xx_tirtos.aem3 : PowerCC26XX_tirtos.oem3 (.text:PowerCC26XX_standbyPolicy)
                  000034e0    000000b8     RF.obj (.text:RF_open)
                  00003598    000000b4     PINCC26XX.obj (.text:PINCC26XX_setIoCfg$7)
                  0000364c    000000b4     Keyboard.obj (.text:rxCompleteCallback)
                  00003700    000000b0     RF.obj (.text:RF_pendCmd)
                  000037b0    000000b0     devinfoservice.obj (.text:devInfo_ReadAttrCB$19)
                  00003860    000000a0     RF.obj (.text:RF_ratCapture)
                  00003900    000000a0     auto_init.aem3 : auto_init.oem3 (.text)
                  000039a0    000000a0     peripheral.obj (.text:gapRole_init$24)
                  00003a40    000000a0     driverlib.lib : setup.obj (.text:trimDevice)
                  00003ae0    0000009c     rtsv7M3_T_le_eabi.lib : memcpy_t2.obj (.text)
                  00003b7c    0000009a     rom_sysbios.aem3 : rom_sysbios.obj (.text:xdc_runtime_Text_putSite__E)
                  00003c16    00000002     hiddev.obj (.text:HidDev_scanParamCB$22)
                  00003c18    00000098     PINCC26XX.obj (.text:PIN_open)
                  00003cb0    00000098     rom_sysbios.aem3 : rom_sysbios.obj (.text:ti_sysbios_knl_Clock_workFuncDynamic__E)
                  00003d48    00000094                      : rom_sysbios.obj (.text:xdc_runtime_Text_putMod__E)
                  00003ddc    00000090     drivers_cc26xxware.aem3 : PowerCC26XX.oem3 (.text:switchXOSCHFclockFunc)
                  00003e6c    00000088     driverlib.lib : osc.obj (.text:OSCHF_GetStartupTime)
                  00003ef4    00000084     icall.obj (.text:ICall_heapMalloc)
                  00003f78    00000084     icall.obj (.text:ICall_primSetTimer$14)
                  00003ffc    0000007c     hiddev.obj (.text:HidDev_processStateChangeEvt$22)
                  00004078    0000007c     hidemukbd.obj (.text:HidEmuKbd_processAppMsg$2)
                  000040f4    0000007c     RF.obj (.text:RF_ratDisableChannel)
                  00004170    0000007c     drivers_cc26xxware.aem3 : PowerCC26XX.oem3 (.text:disableLFClockQualifiers)
                  000041ec    0000007c     Keyboard.obj (.text:txCallback$0)
                  00004268    0000007a     rtsv7M3_T_le_eabi.lib : memset_t2.obj (.text)
                  000042e2    00000002     hidemukbd.obj (.text:HidEmuKbd_hidEventCB$2)
                  000042e4    00000078     Keyboard.obj (.text:startTx)
                  0000435c    00000074     hiddev.obj (.text:HidDev_processPairStateEvt$22)
                  000043d0    00000074     icall_cc2650.obj (.text:ICallPlatform_pwrUpdActivityCounter)
                  00004444    00000074     icall.obj (.text:ICall_primSend$14)
                  000044b8    00000074     drivers_cc26xxware.aem3 : PowerCC26XX_calibrateRCOSC.oem3 (.text:PowerCC26XX_auxISR)
                  0000452c    00000074                             : PowerCC26XX_calibrateRCOSC.oem3 (.text:calibrateRcoscHf2)
                  000045a0    00000074     peripheral.obj (.text:gapRole_startConnUpdate$24)
                  00004614    00000070     driverlib.lib : chipinfo.obj (.text:ChipInfo_GetHwRevision)
                  00004684    00000070     hiddev.obj (.text:HidDev_init$22)
                  000046f4    0000006d     rom_sysbios.aem3 : rom_sysbios.obj (.text:xdc_runtime_System_formatNum__I)
                  00004761    00000001     --HOLE-- [fill = 0]
                  00004762    00000002     drivers_cc26xxware.aem3 : PowerCC26XX.oem3 (.text:emptyClockFunc)
                  00004764    0000006c     driverlib.lib : setup.obj (.text:GetTrimForAmpcompCtrl$61)
                  000047d0    0000006c     hiddev.obj (.text:HidDev_sendReport$22)
                  0000483c    0000006c     icall.obj (.text:ICall_createRemoteTasks)
                  000048a8    0000006c     icall.obj (.text:ICall_heapInit)
                  00004914    0000006c     drivers_cc26xxware.aem3 : PowerCC26XX.oem3 (.text:PowerCC26XX_calibrate)
                  00004980    0000006c     RF.obj (.text:RF_yield)
                  000049ec    0000006a     rtsv7M3_T_le_eabi.lib : copy_decompress_rle.obj (.text)
                  00004a56    00000002                           : i_div0.obj (.text)
                  00004a58    00000068     hiddev.obj (.text:HidDev_enqueueReport$22)
                  00004ac0    00000068     hidemukbd.obj (.text:HidEmuKbd_taskFxn$2)
                  00004b28    00000068     driverlib.lib : sys_ctrl.obj (.text:SysCtrl_DCDC_VoltageConditionalControl)
                  00004b90    00000068     RF.obj (.text:fsmPowerDownState$8)
                  00004bf8    00000068     rtsv7M3_T_le_eabi.lib : trgmsg.obj (.text)
                  00004c60    00000064     driverlib.lib : setup.obj (.text:GetTrimForAnabypassValue1$61)
                  00004cc4    00000064     RF.obj (.text:fsmPatchState$8)
                  00004d28    00000064     rom_sysbios.aem3 : rom_sysbios.obj (.text:ti_sysbios_family_arm_cc26xx_Timer_start__E)
                  00004d8c    00000060     icall.obj (.text:ICall_primEnroll$14)
                  00004dec    00000060     RF.obj (.text:RF_getCurrentTime)
                  00004e4c    00000060     RF.obj (.text:RF_ratCompare)
                  00004eac    00000060     battservice.obj (.text:battReadAttrCB$18)
                  00004f0c    00000060     Keyboard.obj (.text:taskFxn)
                  00004f6c    00000060     drivers_cc26xxware.aem3 : PowerCC26XX_calibrateRCOSC.oem3 (.text:updateSubSecInc)
                  00004fcc    0000005c     icall.obj (.text:ICall_primThreadServes$14)
                  00005028    0000005c     driverlib.lib : osc.obj (.text:OSCHF_AttemptToSwitchToXosc)
                  00005084    0000005c     drivers_cc26xxware.aem3 : PowerCC26XX_calibrateRCOSC.oem3 (.text:PowerCC26XX_RCOSC_clockFunc)
                  000050e0    0000005c     driverlib.lib : sys_ctrl.obj (.text:SysCtrlAdjustRechargeAfterPowerDown)
                  0000513c    0000005c     RF.obj (.text:decActiveClientCnt$8)
                  00005198    0000005c     app_ble_pem3.oem3 (.text:xdc_runtime_Startup_getState__I)
                  000051f4    0000005b     rom_sysbios.aem3 : rom_sysbios.obj (.text:xdc_runtime_Text_putLab__E)
                  0000524f    00000001     --HOLE-- [fill = 0]
                  00005250    00000058     drivers_cc26xxware.aem3 : PowerCC26XX_calibrateRCOSC.oem3 (.text:PowerCC26XX_initiateCalibration)
                  000052a8    00000054     icall_api.obj (.text:GAPBondMgr_GetParameter)
                  000052fc    00000054     scanparamservice.obj (.text:ScanParam_RefreshNotify)
                  00005350    00000054     drivers_cc26xxware.aem3 : PowerCC26XX.oem3 (.text:configureXOSCHF)
                  000053a4    00000054     RF.obj (.text:fsmXOSCState$8)
                  000053f8    00000054     RF.obj (.text:hwiFxnHw$8)
                  0000544c    00000054     RF.obj (.text:ratChanAlloc$8)
                  000054a0    00000054     RF.obj (.text:ratChanFree$8)
                  000054f4    00000054     rtsv7M3_T_le_eabi.lib : exit.obj (.text)
                  00005548    00000054                           : trgdrv.obj (.text)
                  0000559c    00000054     scanparamservice.obj (.text:scanParamWriteAttrCB$25)
                  000055f0    00000052     icall.obj (.text:ICall_primWait$14)
                  00005642    00000002     app_ble_pem3.oem3 (.text:ti_sysbios_BIOS_nullFunc__I)
                  00005644    00000050     icall_api.obj (.text:GAP_DeviceInit)
                  00005694    00000050     icall_api.obj (.text:GAP_UpdateAdvertisingData)
                  000056e4    00000050     icall.obj (.text:ICall_primRegisterApp$14)
                  00005734    00000050     RF.obj (.text:RF_getInfo)
                  00005784    00000050     driverlib.lib : setup.obj (.text:SetupCacheModeAccordingToCcfgSetting$61)
                  000057d4    00000050     RF.obj (.text:syncCb$8)
                  00005824    0000004c     hidkbdservice.obj (.text:HidKbd_SetParameter)
                  00005870    0000004c     icall.obj (.text:ICall_newTask$14)
                  000058bc    0000004c     icall.obj (.text:ICall_primGetEntityId$14)
                  00005908    0000004c     driverlib.lib : osc.obj (.text:NOROM_OSCClockSourceSet)
                  00005954    0000004c     battservice.obj (.text:battWriteAttrCB$18)
                  000059a0    0000004c     RF.obj (.text:dispatchOpWhen$8)
                  000059ec    0000004c     peripheral.obj (.text:gapRole_processStackMsg$24)
                  00005a38    0000004c     rtsv7M3_T_le_eabi.lib : cpy_tbl.obj (.text)
                  00005a84    0000004a     gattservapp_util.obj (.text:GATTServApp_ProcessCCCWriteReq)
                  00005ace    00000002     rom_sysbios.aem3 : rom_sysbios.obj (.text:ti_sysbios_knl_Clock_triggerFunc__I)
                  00005ad0    00000048     driverlib.lib : chipinfo.obj (.text:ChipInfo_GetChipFamily)
                  00005b18    00000048     hiddev.obj (.text:HidDev_disconnected$22)
                  00005b60    00000048     hiddev.obj (.text:HidDev_sendNoti$22)
                  00005ba8    00000048     hidemukbd.obj (.text:HidEmuKbd_reportCB$2)
                  00005bf0    00000048     driverlib.lib : ddi.obj (.text:NOROM_DDI16BitfieldWrite)
                  00005c38    00000048     RF.obj (.text:RF_runCmd)
                  00005c80    00000048     util.obj (.text:Util_constructClock)
                  00005cc8    00000048     battservice.obj (.text:battNotify$18)
                  00005d10    00000048     icall_api.obj (.text:gattIndNoti$17)
                  00005d58    00000048     drivers_cc26xxware.aem3 : PowerCC26XX.oem3 (.text:notify)
                  00005da0    00000046     hiddev.obj (.text:HidDev_processAppMsg$22)
                  00005de6    00000002     app_ble_pem3.oem3 (.text:ti_sysbios_rom_cortexm_cc26xx_CC26xx_badRomRevision__E)
                  00005de8    00000044     main.obj (.text:AssertHandler)
                  00005e2c    00000044     icall_api.obj (.text:GAP_TerminateLinkReq)
                  00005e70    00000044     PINCC26XX.obj (.text:PIN_swi$7)
                  00005eb4    00000044     boot.aem3 : boot.oem3 (.text)
                  00005ef8    00000044     Keyboard.obj (.text:createTask)
                  00005f3c    00000044     icall_api.obj (.text:gapSendParamAndPtrCmd$17)
                  00005f80    00000044     Keyboard.obj (.text:rxRestoreClock)
                  00005fc4    00000044     rom_sysbios.aem3 : rom_sysbios.obj (.text:xdc_runtime_SysMin_flush__E)
                  00006008    00000044                      : rom_sysbios.obj (.text:xdc_runtime_Text_xprintf__I)
                  0000604c    00000042     hiddev.obj (.text:HidDev_lowAdvertising$22)
                  0000608e    00000042     icall.obj (.text:ICall_primCreateTask$14)
                  000060d0    00000040     battservice.obj (.text:Batt_GetParameter)
                  00006110    00000040     peripheral.obj (.text:GAPRole_SendUpdateParam)
                  00006150    00000040     peripheral.obj (.text:GAPRole_createTask)
                  00006190    00000040     driverlib.lib : ddi.obj (.text:NOROM_DDI16BitfieldRead)
                  000061d0    00000040     RF.obj (.text:RF_getRssi)
                  00006210    00000040     rtsv7M3_T_le_eabi.lib : u_divt2.obj (.text)
                  00006250    0000003e     hiddev.obj (.text:HidDev_highAdvertising$22)
                  0000628e    0000003e     hiddev.obj (.text:HidDev_initialAdvertising$22)
                  000062cc    0000003c     icall_api.obj (.text:GAP_GetParamValue)
                  00006308    0000003c     icall_api.obj (.text:GATTServApp_RegisterService)
                  00006344    0000003c     hiddev.obj (.text:HidDev_Report)
                  00006380    0000003c     hiddev.obj (.text:HidDev_createTask)
                  000063bc    0000003c     hidemukbd.obj (.text:HidEmuKbd_createTask)
                  000063f8    0000003c     icall_cc2650.obj (.text:ICallPlatform_pwrConfigACAction)
                  00006434    0000003c     driverlib.lib : rfc.obj (.text:NOROM_RFCSynthPowerDown)
                  00006470    0000003c                   : osc.obj (.text:OSC_HPOSCRelativeFrequencyOffsetGet)
                  000064ac    0000003c     RF.obj (.text:postDirImmCmd$8)
                  000064e8    0000003c     icall_api.obj (.text:profileSetParameter$17)
                  00006524    0000003c     icall_api.obj (.text:sendWaitMatchCS$17)
                  00006560    0000003c     icall_api.obj (.text:sendWaitMatchValueCS$17)
                  0000659c    00000038     icall_api.obj (.text:GAPBondMgr_LinkEst)
                  000065d4    00000038     hiddev.obj (.text:HidDev_reportById$22)
                  0000660c    00000038     hidkbdservice.obj (.text:HidKbd_GetParameter)
                  00006644    00000038     icall.obj (.text:ICall_primGetMaxMSecs$14)
                  0000667c    00000038     util.obj (.text:Util_restartClock)
                  000066b4    00000038     battservice.obj (.text:battMeasure$18)
                  000066ec    00000038     battservice.obj (.text:battNotifyLevel$18)
                  00006724    00000038     icall_api.obj (.text:linkDB_NumConns)
                  0000675c    00000038     main.obj (.text:main)
                  00006794    00000038     rom_sysbios.aem3 : rom_sysbios.obj (.text:ti_sysbios_family_arm_cc26xx_Timer_getCurrentTick__E)
                  000067cc    00000038                      : rom_sysbios.obj (.text:xdc_runtime_SysMin_putch__E)
                  00006804    00000036     RF.obj (.text:updateImplicitState$8)
                  0000683a    00000002     rom_sysbios.aem3 : rom_sysbios.obj (.text:xdc_runtime_SysCallback_defaultAbort)
                  0000683c    00000034     icall_api.obj (.text:GAPBondMgr_SetParameter)
                  00006870    00000034     icall_api.obj (.text:GAP_SetParamValue)
                  000068a4    00000034     icall.obj (.text:ICall_primEntityId2ServiceId$14)
                  000068d8    00000034     icall.obj (.text:ICall_primFetchMsg$14)
                  0000690c    00000034     icall.obj (.text:ICall_primRegisterISR$14)
                  00006940    00000034     icall.obj (.text:ICall_primRegisterISR_Ext$14)
                  00006974    00000034     icall.obj (.text:ICall_searchServiceEntity)
                  000069a8    00000034     Keyboard.obj (.text:Keyboard_init)
                  000069dc    00000034     driverlib.lib : osc.obj (.text:OSCHF_SwitchToRcOscTurnOffXosc)
                  00006a10    00000034     drivers_cc26xxware.aem3 : PowerCC26XX.oem3 (.text:PowerCC26XX_isStableXOSC_HF)
                  00006a44    00000034     RF.obj (.text:Q_push$8)
                  00006a78    00000034     icall_api.obj (.text:osal_snv_read)
                  00006aac    00000034     icall_api.obj (.text:osal_snv_write)
                  00006ae0    00000034     icall_api.obj (.text:profileAddService$17)
                  00006b14    00000034     Keyboard.obj (.text:stopTx)
                  00006b48    00000032     icall_api.obj (.text:gapSendParamsCmd$17)
                  00006b7a    00000032     icall_api.obj (.text:gapSendPtrParamsCmd$17)
                  00006bac    00000032     icall_api.obj (.text:matchGapSetGetParamCS$17)
                  00006bde    00000032     icall_api.obj (.text:matchGattCmdStatus$17)
                  00006c10    00000032     icall_api.obj (.text:matchUtilNvCS$17)
                  00006c42    00000032     rom_sysbios.aem3 : rom_sysbios.obj (.text:ti_sysbios_family_arm_cc26xx_Timer_setNextTick__E)
                  00006c74    00000030     icall_api.obj (.text:GAPBondMgr_PasscodeRsp)
                  00006ca4    00000030     hiddev.obj (.text:HidDev_reportByHandle$22)
                  00006cd4    00000030     icall_cc2650.obj (.text:ICallPlatform_pwrNotify$15)
                  00006d04    00000030     icall_cc2650.obj (.text:ICallPlatform_pwrRegisterNotify)
                  00006d34    00000030     icall.obj (.text:ICall_msecs2Ticks$14)
                  00006d64    00000030     icall.obj (.text:ICall_searchTask$14)
                  00006d94    00000030     drivers_cc26xxware.aem3 : PowerCC26XX.oem3 (.text:Power_releaseConstraint)
                  00006dc4    00000030                             : PowerCC26XX.oem3 (.text:Power_setConstraint)
                  00006df4    00000030     driverlib.lib : setup.obj (.text:SetAonRtcSubSecInc$61)
                  00006e24    00000030     app_ble_pem3.oem3 (.text:ti_sysbios_BIOS_atExitFunc__I)
                  00006e54    00000030     rom_sysbios.aem3 : rom_sysbios.obj (.text:ti_sysbios_family_arm_cc26xx_Timer_initDevice__I)
                  00006e84    00000030                      : rom_sysbios.obj (.text:ti_sysbios_family_arm_cc26xx_Timer_setThreshold__I)
                  00006eb4    00000030                      : rom_sysbios.obj (.text:xdc_runtime_SysMin_abort__E)
                  00006ee4    0000002f                      : rom_sysbios.obj (.text:xdc_runtime_Text_printVisFxn__I)
                  00006f13    00000001     --HOLE-- [fill = 0]
                  00006f14    0000002e     hiddev.obj (.text:HidDev_passcodeCB$22)
                  00006f42    0000002e     icall_cc2650.obj (.text:ICallPlatform_pwrDispenseImpl$15)
                  00006f70    0000002e     icall_cc2650.obj (.text:ICallPlatform_pwrRequireImpl$15)
                  00006f9e    0000002e     hiddev.obj (.text:ICall_fetchServiceMsg$22)
                  00006fcc    0000002e     peripheral.obj (.text:ICall_fetchServiceMsg$24)
                  00006ffa    0000002e     hidemukbd.obj (.text:ICall_fetchServiceMsg$2)
                  00007028    0000002e     icall.obj (.text:ICall_msgDequeue$14)
                  00007056    0000002e     util.obj (.text:Util_enqueueMsg)
                  00007084    0000002e     Keyboard.obj (.text:isModifier)
                  000070b2    0000002e     icall_api.obj (.text:matchProfileAddServiceCS$17)
                  000070e0    0000002c     driverlib.lib : setup.obj (.text:GetTrimForRadcExtCfg$61)
                  0000710c    0000002c     hiddev.obj (.text:HidDev_Register)
                  00007138    0000002c     hiddev.obj (.text:HidDev_dequeueReport$22)
                  00007164    0000002c     hiddev.obj (.text:HidDev_reportByCccdHandle$22)
                  00007190    0000002c     icall.obj (.text:ICall_heapFree)
                  000071bc    0000002c     battservice.obj (.text:ICall_malloc$18)
                  000071e8    0000002c     hidkbdservice.obj (.text:ICall_malloc$23)
                  00007214    0000002c     scanparamservice.obj (.text:ICall_malloc$25)
                  00007240    0000002c     icall.obj (.text:ICall_msgEnqueue$14)
                  0000726c    0000002c     icall.obj (.text:ICall_primAllocMsg$14)
                  00007298    0000002c     icall.obj (.text:ICall_primFetchServiceMsg$14)
                  000072c4    0000002c     icall_api.obj (.text:ICall_sendServiceMsg$17)
                  000072f0    0000002c     PINCC26XX.obj (.text:PIN_setConfig)
                  0000731c    0000002c     drivers_cc26xxware.aem3 : PowerCC26XX.oem3 (.text:PowerCC26XX_switchXOSC_HF)
                  00007348    0000002c     Keyboard.obj (.text:createSemaphore)
                  00007374    0000002c     Keyboard.obj (.text:resetKeyboard)
                  000073a0    0000002c     rom_sysbios.aem3 : rom_sysbios.obj (.text:ti_sysbios_knl_Clock_getTicksUntilInterrupt__E)
                  000073cc    0000002a     icall_api.obj (.text:ICall_waitMatch$17)
                  000073f6    0000002a     icall_api.obj (.text:matchProfileCS$17)
                  00007420    0000002a     rom_sysbios.aem3 : rom_sysbios.obj (.text:xdc_runtime_System_putchar__I)
                  0000744a    00000002                      : rom_sysbios.obj (.text:xdc_runtime_SysCallback_defaultExit)
                  0000744c    00000028     driverlib.lib : aon_batmon.obj (.text:AONBatMonTemperatureGetDegC)
                  00007474    00000028     battservice.obj (.text:Batt_AddService)
                  0000749c    00000028     icall_api.obj (.text:GAPBondMgr_Register)
                  000074c4    00000028     gattservapp_util.obj (.text:GATTServApp_WriteCharCfg)
                  000074ec    00000028     hiddev.obj (.text:HidDev_enqueueMsg$22)
                  00007514    00000028     hiddev.obj (.text:HidDev_reportReadyClockCB$22)
                  0000753c    00000028     icall.obj (.text:ICall_init)
                  00007564    00000028     icall.obj (.text:ICall_msgPrepend$14)
                  0000758c    00000028     hiddev.obj (.text:ICall_registerApp$22)
                  000075b4    00000028     peripheral.obj (.text:ICall_registerApp$24)
                  000075dc    00000028     hidemukbd.obj (.text:ICall_registerApp$2)
                  00007604    00000028     drivers_cc26xxware.aem3 : PowerCC26XX.oem3 (.text:Power_registerNotify)
                  0000762c    00000028     driverlib.lib : adi.obj (.text:SafeHapiVoid)
                  00007654    00000028     scanparamservice.obj (.text:ScanParam_AddService)
                  0000767c    00000028     gattservapp_util.obj (.text:gattServApp_FindCharCfgItem$21)
                  000076a4    00000028     rom_sysbios.aem3 : rom_sysbios.obj (.text:ti_sysbios_family_arm_cc26xx_Timer_getMaxTicks__E)
                  000076cc    00000026     drivers_cc26xxware.aem3 : List.oem3 (.text:List_put)
                  000076f2    00000024     icall_api.obj (.text:GAPBondMgr_LinkTerm)
                  00007716    00000002     --HOLE-- [fill = 0]
                  00007718    00000024     hiddev.obj (.text:HidDev_processBatteryEvt$22)
                  0000773c    00000024     hiddev.obj (.text:HidDev_processPasscodeEvt$22)
                  00007760    00000024     hidemukbd.obj (.text:HidEmuKbd_enqueueMsg$2)
                  00007784    00000024     icall_api.obj (.text:ICall_getLocalMsgEntityId$17)
                  000077a8    00000024     icall_api.obj (.text:ICall_threadServes$17)
                  000077cc    00000024     RF.obj (.text:RF_ratHwOutput)
                  000077f0    00000024     drivers_cc26xxware.aem3 : PowerCC26XX_calibrateRCOSC.oem3 (.text:getTdcSemaphore)
                  00007814    00000024     RF.obj (.text:hwiFxnCpe0PowerFsm$8)
                  00007838    00000024     app_ble_pem3.oem3 (.text:ti_sysbios_BIOS_registerRTSLock__I)
                  0000785c    00000024     app_ble_pem3.oem3 (.text:ti_sysbios_BIOS_removeRTSLock__I)
                  00007880    00000024     app_ble_pem3.oem3 (.text:ti_sysbios_BIOS_startFunc__I)
                  000078a4    00000024     Keyboard.obj (.text:usbToPS2LedState)
                  000078c8    00000024     rom_sysbios.aem3 : rom_sysbios.obj (.text:xdc_runtime_System_vprintf__E)
                  000078ec    00000022     icall.obj (.text:ICall_dispatch$14)
                  0000790e    00000022     util.obj (.text:ICall_malloc$3)
                  00007930    00000022     app_ble_pem3.oem3 (.text:xdc_runtime_SysMin_output__I)
                  00007952    00000002     --HOLE-- [fill = 0]
                  00007954    00000020     gattservapp_util.obj (.text:GATTServApp_InitCharCfg)
                  00007974    00000020     driverlib.lib : setup.obj (.text:GetTrimForXoscHfCtl$61)
                  00007994    00000020     icall_api.obj (.text:ICall_allocMsg$17)
                  000079b4    00000020     icall_api.obj (.text:ICall_getEntityId$17)
                  000079d4    00000020     hiddev.obj (.text:ICall_malloc$22)
                  000079f4    00000020     hidemukbd.obj (.text:ICall_malloc$2)
                  00007a14    00000020     icall.obj (.text:ICall_primService$14)
                  00007a34    00000020     icall.obj (.text:ICall_searchService$14)
                  00007a54    00000020     driverlib.lib : rfc.obj (.text:NOROM_RFCDoorbellSendTo)
                  00007a74    00000020                   : rfc.obj (.text:NOROM_RFCRfTrimRead)
                  00007a94    00000020     util.obj (.text:Util_dequeueMsg)
                  00007ab4    00000020     RF.obj (.text:applyExtraAdi3VcoLdoVoltageModeOverrideCC13xx$8)
                  00007ad4    00000020     Keyboard.obj (.text:bufferRead)
                  00007af4    00000020     app_ble_pem3.oem3 (.text:ti_sysbios_BIOS_rtsLock__I)
                  00007b14    00000020     rom_sysbios.aem3 : rom_sysbios.obj (.text:ti_sysbios_knl_Clock_stop__E)
                  00007b34    00000020                      : rom_sysbios.obj (.text:xdc_runtime_Registry_findById__E)
                  00007b54    00000020                      : rom_sysbios.obj (.text:xdc_runtime_SysMin_Module_startup__E)
                  00007b74    0000001e     icall.obj (.text:ICall_primSendServiceMsg$14)
                  00007b92    0000001e     drivers_cc26xxware.aem3 : PowerCC26XX.oem3 (.text:Power_getTransitionLatency)
                  00007bb0    0000001e     icall_api.obj (.text:waitMatchCS$17)
                  00007bce    00000002     --HOLE-- [fill = 0]
                  00007bd0    0000001c     battservice.obj (.text:Batt_MeasLevel)
                  00007bec    0000001c     icall_api.obj (.text:GATT_bm_alloc)
                  00007c08    0000001c     icall_api.obj (.text:GATT_bm_free)
                  00007c24    0000001c     driverlib.lib : setup.obj (.text:GetTrimForAmpcompTh2$61)
                  00007c40    0000001c     hiddev.obj (.text:HidDev_battPeriodicTask$22)
                  00007c5c    0000001c     hiddev.obj (.text:HidDev_pairStateCB$22)
                  00007c78    0000001c     icall.obj (.text:ICall_initPrim$14)
                  00007c94    0000001c     hiddev.obj (.text:ICall_wait$22)
                  00007cb0    0000001c     peripheral.obj (.text:ICall_wait$24)
                  00007ccc    0000001c     hidemukbd.obj (.text:ICall_wait$2)
                  00007ce8    0000001c     driverlib.lib : osc.obj (.text:NOROM_OSCClockSourceGet)
                  00007d04    0000001c     PINCC26XX.obj (.text:PINCC26XX_setIoCfgMux$7)
                  00007d20    0000001c     PINCC26XX.obj (.text:PIN_hwi$7)
                  00007d3c    0000001c     drivers_cc26xxware.aem3 : PowerCC26XX.oem3 (.text:Power_idleFunc)
                  00007d58    0000001c     RF.obj (.text:RF_getCmdOp)
                  00007d74    0000001c     RF.obj (.text:RF_runDirectCmd)
                  00007d90    0000001c     RF.obj (.text:clkPowerUpFxn$8)
                  00007dac    0000001c     peripheral.obj (.text:gapRole_HandleParamUpdateNoSuccess$24)
                  00007dc8    0000001c     icall_api.obj (.text:getStatusValueFromErrNo$17)
                  00007de4    0000001c     rom_sysbios.aem3 : rom_sysbios.obj (.text:ti_sysbios_family_arm_cc26xx_Timer_dynamicStub__E)
                  00007e00    0000001c                      : rom_sysbios.obj (.text:xdc_runtime_SysMin_exit__E)
                  00007e1c    0000001a     icall.obj (.text:ICall_enterCSImpl)
                  00007e36    0000001a     icall.obj (.text:ICall_primSetTimerMSecs$14)
                  00007e50    0000001a     icall_api.obj (.text:matchGattIndNotiCS$17)
                  00007e6a    0000001a     rom_sysbios.aem3 : rom_sysbios_config.obj (.text:xdc_runtime_System_printf__E)
                  00007e84    00000018     battservice.obj (.text:Batt_SetParameter)
                  00007e9c    00000018     driverlib.lib : chipinfo.obj (.text:ChipInfo_GetPackageType)
                  00007eb4    00000018     peripheral.obj (.text:GAPRole_StartDevice)
                  00007ecc    00000018     peripheral.obj (.text:GAPRole_TerminateConnection)
                  00007ee4    00000018     icall_api.obj (.text:GATT_Notification)
                  00007efc    00000018     driverlib.lib : setup.obj (.text:GetTrimForAdcShModeEn$61)
                  00007f14    00000018                   : setup.obj (.text:GetTrimForAdcShVbufEn$61)
                  00007f2c    00000018                   : setup.obj (.text:GetTrimForAmpcompTh1$61)
                  00007f44    00000018                   : setup.obj (.text:GetTrimForDblrLoopFilterResetVoltage$61)
                  00007f5c    00000018                   : setup.obj (.text:GetTrimForRcOscLfIBiasTrim$61)
                  00007f74    00000018                   : setup.obj (.text:GetTrimForRcOscLfRtuneCtuneTrim$61)
                  00007f8c    00000018                   : setup.obj (.text:GetTrimForXoscLfRegulatorAndCmirrwrRatio$61)
                  00007fa4    00000018     hiddev.obj (.text:HidDev_StartIdleTimer)
                  00007fbc    00000018     hiddev.obj (.text:HidDev_StopIdleTimer)
                  00007fd4    00000018     hiddev.obj (.text:HidDev_clockHandler$22)
                  00007fec    00000018     icall_cc2650.obj (.text:ICallPlatform_pwrDispense)
                  00008004    00000018     icall_cc2650.obj (.text:ICallPlatform_pwrRequire)
                  0000801c    00000018     hiddev.obj (.text:ICall_free$22)
                  00008034    00000018     hidkbdservice.obj (.text:ICall_free$23)
                  0000804c    00000018     hidemukbd.obj (.text:ICall_free$2)
                  00008064    00000018     util.obj (.text:ICall_free$3)
                  0000807c    00000018     icall.obj (.text:ICall_freeMsg$14)
                  00008094    00000018     icall_api.obj (.text:ICall_freeMsg$17)
                  000080ac    00000018     hiddev.obj (.text:ICall_freeMsg$22)
                  000080c4    00000018     peripheral.obj (.text:ICall_freeMsg$24)
                  000080dc    00000018     hidemukbd.obj (.text:ICall_freeMsg$2)
                  000080f4    00000018     icall.obj (.text:ICall_primMalloc$14)
                  0000810c    00000018     LED.obj (.text:LED_init)
                  00008124    00000018     driverlib.lib : aon_rtc.obj (.text:NOROM_AONRTCCurrentCompareValueGet)
                  0000813c    00000018                   : rfc.obj (.text:NOROM_RFCCpeIntGetAndClear)
                  00008154    00000018                   : osc.obj (.text:OSCHF_TurnOnXosc)
                  0000816c    00000018     RF.obj (.text:Q_pop$8)
                  00008184    00000018     RF.obj (.text:RF_runImmediateCmd)
                  0000819c    00000018     Keyboard.obj (.text:bufferWrite)
                  000081b4    00000018     drivers_cc26xxware.aem3 : PowerCC26XX.oem3 (.text:configureRFCoreClocks)
                  000081cc    00000018     peripheral.obj (.text:gapRole_setEvent$24)
                  000081e4    00000018     rtsv7M3_T_le_eabi.lib : args_main.obj (.text)
                  000081fc    00000018                           : ll_mul_t2.obj (.text)
                  00008214    00000018     RF.obj (.text:swiFxnFsm$8)
                  0000822c    00000018     app_ble_pem3.oem3 (.text:ti_sysbios_BIOS_rtsUnlock__I)
                  00008244    00000018     rom_sysbios.aem3 : rom_sysbios.obj (.text:ti_sysbios_knl_Swi_or__E)
                  0000825c    00000018     app_ble_pem3.oem3 (.text:ti_sysbios_rom_cortexm_cc26xx_CC26xx_checkRevision__E)
                  00008274    00000016     icall.obj (.text:ICall_abort$14)
                  0000828a    00000016     icall.obj (.text:ICall_leaveCSImpl)
                  000082a0    00000016     icall.obj (.text:ICall_primStopTimer$14)
                  000082b6    00000016     app_ble_pem3.oem3 (.text:ti_sysbios_BIOS_exitFunc__I)
                  000082cc    00000014     battservice.obj (.text:Batt_Register)
                  000082e0    00000014     devinfoservice.obj (.text:DevInfo_AddService)
                  000082f4    00000014     peripheral.obj (.text:GAPRole_GetParameter)
                  00008308    00000014     hiddev.obj (.text:HidDev_RegisterReports)
                  0000831c    00000014     hiddev.obj (.text:HidDev_StartAdvertising)
                  00008330    00000014     hiddev.obj (.text:HidDev_bondCount$22)
                  00008344    00000014     hidemukbd.obj (.text:HidEmuKbd_receiveReport$2)
                  00008358    00000014     LED.obj (.text:LED_changeState)
                  0000836c    00000014     driverlib.lib : aon_rtc.obj (.text:NOROM_AONRTCCurrent64BitValueGet)
                  00008380    00000014                   : chipinfo.obj (.text:ThisCodeIsBuiltForCC26xxHwRev22AndLater_HaltIfViolated)
                  00008394    00000014     rtsv7M3_T_le_eabi.lib : _lock.obj (.text)
                  000083a8    00000014                           : strlen.obj (.text)
                  000083bc    00000014     icall_api.obj (.text:setICallCmdEvtHdr$17)
                  000083d0    00000014     app_ble_pem3.oem3 (.text:ti_sysbios_knl_Clock_doTick__I)
                  000083e4    00000012     app_ble_pem3.oem3 (.text:xdc_runtime_Startup_exec__I)
                  000083f6    00000002     --HOLE-- [fill = 0]
                  000083f8    00000010     RF.obj (.text:FsmDispatch$8)
                  00008408    00000010     icall_api.obj (.text:GAP_EndDiscoverable)
                  00008418    00000010     gattservapp_util.obj (.text:GATTServApp_ReadCharCfg)
                  00008428    00000010     driverlib.lib : setup.obj (.text:GetTrimForXoscHfFastStart$61)
                  00008438    00000010                   : setup.obj (.text:GetTrimForXoscHfIbiastherm$61)
                  00008448    00000010     icall_cc2650.obj (.text:ICallPlatform_pwrGetXOSCStartupTime)
                  00008458    00000010     icall.obj (.text:ICall_primGetTickPeriod$14)
                  00008468    00000010     icall.obj (.text:ICall_taskEntry$14)
                  00008478    00000010     Keyboard.obj (.text:Keyboard_changeLedState)
                  00008488    00000010     driverlib.lib : rfc.obj (.text:NOROM_RFCRfTrimSet)
                  00008498    00000010     RF.obj (.text:RF_Params_init)
                  000084a8    00000010     ble_user_config.obj (.text:RegisterAssertCback)
                  000084b8    00000010     scanparamservice.obj (.text:ScanParam_Register)
                  000084c8    00000010     util.obj (.text:Util_isActive)
                  000084d8    00000010     rom_sysbios.aem3 : rom_sysbios.obj (.text:ti_sysbios_family_arm_m3_Hwi_post__E)
                  000084e8    00000010                      : rom_sysbios.obj (.text:xdc_runtime_SysMin_ready__E)
                  000084f8    00000010                      : rom_sysbios.obj (.text:xdc_runtime_System_vsnprintf__E)
                  00008508    0000000e     icall_cc2650.obj (.text:ICallPlatform_pwrGetTransitionState)
                  00008516    0000000e     icall_cc2650.obj (.text:ICallPlatform_pwrIsStableXOSCHF)
                  00008524    0000000e     icall.obj (.text:ICall_primDisableMInt$14)
                  00008532    0000000e     icall.obj (.text:ICall_primEnableMInt$14)
                  00008540    0000000e     icall.obj (.text:ICall_primFreeMsg$14)
                  0000854e    0000000e     icall.obj (.text:ICall_primGetTicks$14)
                  0000855c    0000000e     driverlib.lib : vims.obj (.text:NOROM_VIMSModeGet)
                  0000856a    0000000e                   : setup.obj (.text:SignExtendVddrTrimValue)
                  00008578    0000000e     util.obj (.text:Util_constructQueue)
                  00008586    0000000e     rtsv7M3_T_le_eabi.lib : copy_decompress_none.obj (.text:decompress:none)
                  00008594    0000000e     icall_api.obj (.text:matchGSARegisterServiceCS$17)
                  000085a2    0000000e     icall_api.obj (.text:matchGapLinkEstCS$17)
                  000085b0    0000000e     icall_api.obj (.text:matchGapPasscodeCS$17)
                  000085be    0000000e     icall_api.obj (.text:matchLinkDBNumConnsCS$17)
                  000085cc    0000000e     icall_api.obj (.text:setDispatchCmdEvtHdr$17)
                  000085da    0000000e     rom_sysbios.aem3 : rom_sysbios.obj (.text:ti_sysbios_family_arm_cc26xx_TimestampProvider_get32__E)
                  000085e8    0000000c     RF.obj (.text:FsmNextState$8)
                  000085f4    0000000c     icall_api.obj (.text:GAP_MakeDiscoverable)
                  00008600    0000000c     icall_api.obj (.text:GAP_TerminateAuth)
                  0000860c    0000000c     icall_api.obj (.text:GAP_UpdateLinkParamReq)
                  00008618    0000000c     icall_api.obj (.text:GGS_SetParameter)
                  00008624    0000000c     hiddev.obj (.text:HidDev_StartDevice)
                  00008630    0000000c     hiddev.obj (.text:HidDev_processGattMsg$22)
                  0000863c    0000000c     hiddev.obj (.text:HidDev_processStackMsg$22)
                  00008648    0000000c     hidemukbd.obj (.text:HidEmuKbd_processGattMsg$2)
                  00008654    0000000c     hidemukbd.obj (.text:HidEmuKbd_processStackMsg$2)
                  00008660    0000000c     icall.obj (.text:ICall_clockFunc$14)
                  0000866c    0000000c     icall.obj (.text:ICall_primDisableInt$14)
                  00008678    0000000c     icall.obj (.text:ICall_primEnableInt$14)
                  00008684    0000000c     icall.obj (.text:ICall_primFree$14)
                  00008690    0000000c     icall.obj (.text:ICall_primSignal$14)
                  0000869c    0000000c     driverlib.lib : cpu.obj (.text:NOROM_CPUcpsid)
                  000086a8    0000000c                   : cpu.obj (.text:NOROM_CPUcpsie)
                  000086b4    0000000c     drivers_cc26xxware.aem3 : PowerCC26XX.oem3 (.text:Power_getConstraintMask)
                  000086c0    0000000c                             : PowerCC26XX.oem3 (.text:Power_getDependencyCount)
                  000086cc    0000000c                             : PowerCC26XX.oem3 (.text:Power_getTransitionState)
                  000086d8    0000000c     icall_api.obj (.text:matchProfileSetParamCS$17)
                  000086e4    0000000c     rom_sysbios.aem3 : rom_sysbios.obj (.text:ti_sysbios_BIOS_getThreadType__E)
                  000086f0    0000000c                      : rom_sysbios_config.obj (.text:ti_sysbios_hal_Hwi_Params__init__S)
                  000086fc    0000000c                      : rom_sysbios.obj (.text:ti_sysbios_knl_Swi_getTrigger__E)
                  00008708    0000000c     app_ble_pem3.oem3 (.text:xdc_runtime_Startup_reset__I)
                  00008714    0000000a     hiddev.obj (.text:HidDev_batteryCB$22)
                  0000871e    0000000a     hiddev.obj (.text:HidDev_stateChangeCB$22)
                  00008728    0000000a     icall_cc2650.obj (.text:ICallPlatform_pwrSwitchXOSCHF)
                  00008732    0000000a     icall.obj (.text:ICall_primE2S$14)
                  0000873c    0000000a     drivers_cc26xxware.aem3 : List.oem3 (.text:List_empty)
                  00008746    00000008     RF.obj (.text:RF_flushCmd)
                  0000874e    00000008     app_ble_pem3.oem3 (.text:xdc_runtime_Text_visitRope__I)
                  00008756    00000006     icall_api.obj (.text:GGS_AddService)
                  0000875c    00000006     icall.obj (.text:ICall_mallocImpl)
                  00008762    00000006     driverlib.lib : cpu.obj (.text:NOROM_CPUdelay)
                  00008768    00000006     PINCC26XX.obj (.text:PIN_registerIntCb)
                  0000876e    00000006     RF.obj (.text:clkInactivityFxn$8)
                  00008774    00000006     rtsv7M3_T_le_eabi.lib : copy_decompress_rle.obj (.text:decompress:rle24)
                  0000877a    00000006     icall_api.obj (.text:gattAddService$17)
                  00008780    00000006     icall_api.obj (.text:matchBondMgrGetParamCS$17)
                  00008786    00000006     icall_api.obj (.text:matchBondMgrSetParamCS$17)
                  0000878c    00000006     icall_api.obj (.text:matchGGSSetParamCS$17)
                  00008792    00000006     icall_api.obj (.text:matchGapDeviceInitCS$17)
                  00008798    00000006     icall_api.obj (.text:matchGapEndDiscoverableCS$17)
                  0000879e    00000006     icall_api.obj (.text:matchGapGetParamCS$17)
                  000087a4    00000006     icall_api.obj (.text:matchGapMakeDiscoverableCS$17)
                  000087aa    00000006     icall_api.obj (.text:matchGapSetParamCS$17)
                  000087b0    00000006     icall_api.obj (.text:matchGapTerminateAuthCS$17)
                  000087b6    00000006     icall_api.obj (.text:matchGapTerminateLinkReqCS$17)
                  000087bc    00000006     icall_api.obj (.text:matchGapUpdateAdvDataCS$17)
                  000087c2    00000006     icall_api.obj (.text:matchGapUpdateLinkParamReqCS$17)
                  000087c8    00000006     icall_api.obj (.text:matchUtilNvReadCS$17)
                  000087ce    00000006     icall_api.obj (.text:matchUtilNvWriteCS$17)
                  000087d4    00000006     rom_sysbios.aem3 : rom_sysbios.obj (.text:ti_sysbios_family_arm_m3_Hwi_setFunc__E)
                  000087da    00000004     tirtosport.aem3 : HwiP_tirtos.oem3 (.text:HwiP_disable)
                  000087de    00000004     icall.obj (.text:ICall_primAbort$14)
                  000087e2    00000004     drivers_cc26xxware.aem3 : List.oem3 (.text:List_head)
                  000087e6    00000004                             : List.oem3 (.text:List_next)
                  000087ea    00000004     RF.obj (.text:Q_peek$8)
                  000087ee    00000004     util.obj (.text:Util_startClock)
                  000087f2    00000004     util.obj (.text:Util_stopClock)
                  000087f6    00000004     peripheral.obj (.text:gapRole_SetupGAP$24)
                  000087fa    00000004     drivers_cc26xxware.aem3 : PowerCC26XX.oem3 (.text:nopResourceHandler)
                  000087fe    00000004     scanparamservice.obj (.text:scanParamReadAttrCB$25)
                  00008802    00000004     rom_sysbios.aem3 : rom_sysbios.obj (.text:ti_sysbios_family_arm_cc26xx_Timer_getCount64__E)
                  00008806    00000004                      : rom_sysbios.obj (.text:ti_sysbios_knl_Clock_isActive__E)
                  0000880a    00000004                      : rom_sysbios.obj (.text:xdc_runtime_System_printf_va__F)
                  0000880e    00000002     --HOLE-- [fill = 0]
                  00008810    00000008     (.tramp.xdc_runtime_Core_assignParams__I.1)
                  00008818    00000008     (.tramp.ti_sysbios_hal_Hwi_enableInterrupt__E.1)
                  00008820    00000008     (.tramp.ti_sysbios_hal_Hwi_disableInterrupt__E.1)
                  00008828    00000008     (.tramp.ti_sysbios_knl_Queue_construct.1)
                  00008830    00000008     (.tramp.ti_sysbios_knl_Task_enable__E.1)
                  00008838    00000008     (.tramp.ti_sysbios_family_arm_m3_Hwi_enableFxn__E.1)
                  00008840    00000008     (.tramp.xdc_runtime_Startup_startMods__I.1)
                  00008848    00000008     (.tramp.ti_sysbios_knl_Clock_logTick__E.1)
                  00008850    00000008     (.tramp.ti_sysbios_knl_Swi_post__E.1)
                  00008858    00000008     (.tramp.ti_sysbios_BIOS_RtsGateProxy_leave__E.1)
                  00008860    00000008     (.tramp.ti_sysbios_BIOS_RtsGateProxy_enter__E.1)
                  00008868    00000008     (.tramp.ti_sysbios_knl_Queue_dequeue__E.1)
                  00008870    00000008     (.tramp.ti_sysbios_knl_Task_startup__E.1)
                  00008878    00000008     (.tramp.ti_sysbios_knl_Swi_startup__E.1)
                  00008880    00000008     (.tramp.ti_sysbios_hal_Hwi_startup__E.1)
                  00008888    00000008     (.tramp.ti_sysbios_family_arm_cc26xx_Timer_startup__E.1)
                  00008890    00000008     (.tramp.xdc_runtime_System_atexit__E.1)
                  00008898    00000008     (.tramp.ti_sysbios_knl_Queue_enqueue__E.1)
                  000088a0    00000008     (.tramp.ti_sysbios_BIOS_setThreadType__E.1)
                  000088a8    00000008     (.tramp.ti_sysbios_hal_Hwi_create.1)
                  000088b0    00000008     (.tramp.ti_sysbios_BIOS_start__E.1)
                  000088b8    00000008     (.tramp.xdc_runtime_Gate_leaveSystem__E.1)
                  000088c0    00000008     (.tramp.xdc_runtime_Gate_enterSystem__E.1)
                  000088c8    00000008     (.tramp.ti_sysbios_knl_Task_construct.1)
                  000088d0    00000008     (.tramp.xdc_runtime_System_exit__E.1)
                  000088d8    00000008     (.tramp.ti_sysbios_knl_Semaphore_create.1)
                  000088e0    00000008     (.tramp.ti_sysbios_knl_Task_create.1)
                  000088e8    00000008     (.tramp.ti_sysbios_knl_Task_Params__init__S.1)
                  000088f0    00000008     (.tramp.ti_sysbios_knl_Clock_create.1)
                  000088f8    00000008     (.tramp.ti_sysbios_knl_Clock_scheduleNextTick__E.1)
                  00008900    00000008     (.tramp.ti_sysbios_knl_Clock_walkQueueDynamic__E.1)
                  00008908    00000008     (.tramp.ti_sysbios_knl_Clock_TimerProxy_getCurrentTick__E.1)
                  00008910    00000008     (.tramp.xdc_runtime_System_abort__E.1)
                  00008918    00000008     (.tramp.ti_sysbios_family_arm_m3_Hwi_destruct.1)
                  00008920    00000008     (.tramp.ti_sysbios_knl_Swi_destruct.1)
                  00008928    00000008     (.tramp.ti_sysbios_knl_Clock_destruct.1)
                  00008930    00000008     (.tramp.ti_sysbios_knl_Semaphore_destruct.1)
                  00008938    00000008     (.tramp.ti_sysbios_knl_Queue_empty__E.1)
                  00008940    00000008     (.tramp.ti_sysbios_knl_Semaphore_pend__E.1)
                  00008948    00000008     (.tramp.ti_sysbios_knl_Clock_getTicks__E.1)
                  00008950    00000008     (.tramp.ti_sysbios_knl_Task_self__E.1)
                  00008958    00000008     (.tramp.ti_sysbios_knl_Semaphore_post__E.1)
                  00008960    00000008     (.tramp.ti_sysbios_knl_Clock_construct.1)
                  00008968    00000008     (.tramp.ti_sysbios_knl_Clock_Params__init__S.1)
                  00008970    00000008     (.tramp.ti_sysbios_knl_Swi_construct.1)
                  00008978    00000008     (.tramp.ti_sysbios_knl_Swi_Params__init__S.1)
                  00008980    00000008     (.tramp.ti_sysbios_family_arm_m3_Hwi_construct.1)
                  00008988    00000008     (.tramp.ti_sysbios_family_arm_m3_Hwi_Params__init__S.1)
                  00008990    00000008     (.tramp.ti_sysbios_knl_Semaphore_construct.1)
                  00008998    00000008     (.tramp.ti_sysbios_knl_Semaphore_Params__init__S.1)
                  000089a0    00000008     (.tramp.ti_sysbios_knl_Task_restore__E.1)
                  000089a8    00000008     (.tramp.ti_sysbios_knl_Swi_restore__E.1)
                  000089b0    00000008     (.tramp.ti_sysbios_knl_Swi_disable__E.1)
                  000089b8    00000008     (.tramp.ti_sysbios_knl_Task_disable__E.1)
                  000089c0    00000008     (.tramp.ti_sysbios_family_arm_m3_Hwi_restoreFxn__E.1)
                  000089c8    00000008     (.tramp.ti_sysbios_family_arm_m3_Hwi_disableFxn__E.1)
                  000089d0    00000008     (.tramp.ti_sysbios_knl_Clock_start__E.1)
                  000089d8    00000008     (.tramp.ti_sysbios_knl_Clock_setTimeout__E.1)

.const     0    000089e0    00000390     
                  000089e0    000000c0     icall.obj (.const:$O11$$)
                  00008aa0    0000004c     drivers_cc26xxware.aem3 : PowerCC26XX.oem3 (.const:resourceDB)
                  00008aec    0000004c     ble_user_config.obj (.const:rfDriverTable)
                  00008b38    00000048     app_ble_pem3.oem3 (.const:.string)
                  00008b80    0000003f     hidkbdservice.obj (.const:.string:hidReportMap$23)
                  00008bbf    00000001     app_ble_pem3.oem3 (.const:xdc_runtime_Text_charTab__A)
                  00008bc0    0000002c     gatt_uuid.obj (.const:$O16$$)
                  00008bec    0000002c     board.obj (.const:BoardGpioInitTable)
                  00008c18    00000028     app_ble_pem3.oem3 (.const:xdc_runtime_Startup_sfxnTab__A)
                  00008c40    00000027     ble_user_config.obj (.const:txPowerTable)
                  00008c67    00000015     hidemukbd.obj (.const:.string:attDeviceName$2)
                  00008c7c    00000014     app_ble_pem3.oem3 (.const:xdc_runtime_Startup_sfxnRts__A)
                  00008c90    00000010     board.obj (.const:PowerCC26XX_config)
                  00008ca0    0000000c     RF.obj (.const:RF_defaultParams$8)
                  00008cac    0000000c     battservice.obj (.const:battCBs)
                  00008cb8    0000000c     devinfoservice.obj (.const:devInfoCBs)
                  00008cc4    0000000c     hidkbdservice.obj (.const:hidKbdCBs)
                  00008cd0    0000000c     scanparamservice.obj (.const:scanParamCBs)
                  00008cdc    0000000c     app_ble_pem3.oem3 (.const:xdc_runtime_Startup_firstFxns__A)
                  00008ce8    00000008     battservice.obj (.const:battService$18)
                  00008cf0    00000008     devinfoservice.obj (.const:devInfoService$19)
                  00008cf8    00000008     hiddev.obj (.const:hidDevBondCB$22)
                  00008d00    00000008     hidkbdservice.obj (.const:hidService$23)
                  00008d08    00000008     scanparamservice.obj (.const:scanParamService$25)
                  00008d10    00000006     ble_user_config.obj (.const:txPwrTbl)
                  00008d16    00000004     hidkbdservice.obj (.const:.string:hidInfo$23)
                  00008d1a    00000002     battservice.obj (.const:.string:battLevelUUID)
                  00008d1c    00000004     icall_cc2650.obj (.const:events$1$15)
                  00008d20    00000004     app_ble_pem3.oem3 (.const:ti_sysbios_knl_Clock_tickPeriod__C)
                  00008d24    00000004     app_ble_pem3.oem3 (.const:ti_sysbios_knl_Clock_triggerClock__C)
                  00008d28    00000004     app_ble_pem3.oem3 (.const:ti_sysbios_knl_Idle_funcList__A)
                  00008d2c    00000004     app_ble_pem3.oem3 (.const:xdc_runtime_SysMin_bufSize__C)
                  00008d30    00000004     app_ble_pem3.oem3 (.const:xdc_runtime_SysMin_outputFunc__C)
                  00008d34    00000004     app_ble_pem3.oem3 (.const:xdc_runtime_System_extendFxn__C)
                  00008d38    00000004     app_ble_pem3.oem3 (.const:xdc_runtime_Text_visitRopeFxn__C)
                  00008d3c    00000002     battservice.obj (.const:.string:battServUUID)
                  00008d3e    00000002     devinfoservice.obj (.const:.string:devInfo11073CertUUID)
                  00008d40    00000002     devinfoservice.obj (.const:.string:devInfoFirmwareRevUUID)
                  00008d42    00000002     devinfoservice.obj (.const:.string:devInfoHardwareRevUUID)
                  00008d44    00000002     devinfoservice.obj (.const:.string:devInfoMfrNameUUID)
                  00008d46    00000002     devinfoservice.obj (.const:.string:devInfoModelNumberUUID)
                  00008d48    00000002     devinfoservice.obj (.const:.string:devInfoPnpIdUUID)
                  00008d4a    00000002     devinfoservice.obj (.const:.string:devInfoSerialNumberUUID)
                  00008d4c    00000002     devinfoservice.obj (.const:.string:devInfoServUUID)
                  00008d4e    00000002     devinfoservice.obj (.const:.string:devInfoSoftwareRevUUID)
                  00008d50    00000002     devinfoservice.obj (.const:.string:devInfoSystemIdUUID)
                  00008d52    00000002     hidkbdservice.obj (.const:.string:hidBootKeyInputUUID)
                  00008d54    00000002     hidkbdservice.obj (.const:.string:hidBootKeyOutputUUID)
                  00008d56    00000002     hidkbdservice.obj (.const:.string:hidBootMouseInputUUID)
                  00008d58    00000002     hidkbdservice.obj (.const:.string:hidControlPointUUID)
                  00008d5a    00000002     hidkbdservice.obj (.const:.string:hidInfoUUID)
                  00008d5c    00000002     hidkbdservice.obj (.const:.string:hidProtocolModeUUID)
                  00008d5e    00000002     hidkbdservice.obj (.const:.string:hidReportMapUUID)
                  00008d60    00000002     hidkbdservice.obj (.const:.string:hidReportUUID)
                  00008d62    00000002     hidkbdservice.obj (.const:.string:hidServUUID)
                  00008d64    00000002     scanparamservice.obj (.const:.string:scanIntervalWindowUUID)
                  00008d66    00000002     scanparamservice.obj (.const:.string:scanParamRefreshUUID)
                  00008d68    00000002     scanparamservice.obj (.const:.string:scanParamServUUID)
                  00008d6a    00000002     app_ble_pem3.oem3 (.const:xdc_runtime_SysMin_flushAtExit__C)
                  00008d6c    00000002     app_ble_pem3.oem3 (.const:xdc_runtime_Text_registryModsLastId__C)
                  00008d6e    00000002     app_ble_pem3.oem3 (.const:xdc_runtime_Text_unnamedModsLastId__C)

.cinit     0    00008d70    000009d4     
                  00008d70    00000836     (.cinit..data.load) [load image, compression = rle]
                  000095a6    00000002     --HOLE-- [fill = 0]
                  000095a8    0000002d     (.cinit..data:ti_sysbios_family_arm_m3_Hwi_Module__state__V.load) [load image, compression = rle]
                  000095d5    00000003     --HOLE-- [fill = 0]
                  000095d8    0000002c     (.cinit..data:ti_sysbios_knl_Task_Module__state__V.load) [load image, compression = rle]
                  00009604    00000004     --HOLE-- [fill = 0]
                  00009608    00000021     (.cinit..data:ti_sysbios_knl_Clock_Module__state__V.load) [load image, compression = rle]
                  00009629    00000007     --HOLE-- [fill = 0]
                  00009630    0000001f     (.cinit..data:ti_sysbios_BIOS_Module__state__V.load) [load image, compression = rle]
                  0000964f    00000001     --HOLE-- [fill = 0]
                  00009650    00000011     (.cinit..data:ti_sysbios_knl_Swi_Module__state__V.load) [load image, compression = rle]
                  00009661    00000007     --HOLE-- [fill = 0]
                  00009668    0000000d     (.cinit..data:ti_sysbios_family_arm_cc26xx_Timer_Module__state__V.load) [load image, compression = rle]
                  00009675    00000003     --HOLE-- [fill = 0]
                  00009678    0000000b     (.cinit..bss.load) [load image, compression = rle]
                  00009683    00000005     --HOLE-- [fill = 0]
                  00009688    0000000a     (.cinit..data:xdc_runtime_Memory_Module__state__V.load) [load image, compression = rle]
                  00009692    00000006     --HOLE-- [fill = 0]
                  00009698    00000009     (.cinit..data:ti_sysbios_family_arm_cc26xx_TimestampProvider_Module__state__V.load) [load image, compression = rle]
                  000096a1    00000007     --HOLE-- [fill = 0]
                  000096a8    00000009     (.cinit..data:xdc_runtime_Startup_Module__state__V.load) [load image, compression = rle]
                  000096b1    00000007     --HOLE-- [fill = 0]
                  000096b8    00000009     (.cinit..data:xdc_runtime_System_Module__state__V.load) [load image, compression = rle]
                  000096c1    00000007     --HOLE-- [fill = 0]
                  000096c8    00000009     (.cinit..vecs.load) [load image, compression = rle]
                  000096d1    00000003     --HOLE-- [fill = 0]
                  000096d4    00000008     (__TI_handler_table)
                  000096dc    00000068     (__TI_cinit_table)

.init_array 
*          0    00000000    00000000     UNINITIALIZED

.ccfg      0    0001ffa8    00000058     
                  0001ffa8    00000058     ccfg_app_ble.obj (.ccfg:retain)

.vecs      0    20000000    000000c8     UNINITIALIZED
                  20000000    000000c8     app_ble_pem3.oem3 (.vecs)

.data:ti_sysbios_knl_Task_Module__state__V 
*          0    20000100    00000044     UNINITIALIZED
                  20000100    00000044     app_ble_pem3.oem3 (.data:ti_sysbios_knl_Task_Module__state__V)

.data:ti_sysbios_family_arm_m3_Hwi_Module__state__V 
*          0    20000144    00000034     UNINITIALIZED
                  20000144    00000034     app_ble_pem3.oem3 (.data:ti_sysbios_family_arm_m3_Hwi_Module__state__V)

.data:ti_sysbios_knl_Clock_Module__state__V 
*          0    20000178    0000002c     UNINITIALIZED
                  20000178    0000002c     app_ble_pem3.oem3 (.data:ti_sysbios_knl_Clock_Module__state__V)

.data:ti_sysbios_BIOS_Module__state__V 
*          0    200001a4    00000024     UNINITIALIZED
                  200001a4    00000024     app_ble_pem3.oem3 (.data:ti_sysbios_BIOS_Module__state__V)

.data:ti_sysbios_knl_Swi_Module__state__V 
*          0    200001c8    0000001c     UNINITIALIZED
                  200001c8    0000001c     app_ble_pem3.oem3 (.data:ti_sysbios_knl_Swi_Module__state__V)

.data:ti_sysbios_family_arm_cc26xx_Timer_Module__state__V 
*          0    200001e4    00000008     UNINITIALIZED
                  200001e4    00000008     app_ble_pem3.oem3 (.data:ti_sysbios_family_arm_cc26xx_Timer_Module__state__V)

.data:ti_sysbios_family_arm_cc26xx_TimestampProvider_Module__state__V 
*          0    200001ec    00000004     UNINITIALIZED
                  200001ec    00000004     app_ble_pem3.oem3 (.data:ti_sysbios_family_arm_cc26xx_TimestampProvider_Module__state__V)

.data:xdc_runtime_Startup_Module__state__V 
*          0    200001f0    00000008     UNINITIALIZED
                  200001f0    00000008     app_ble_pem3.oem3 (.data:xdc_runtime_Startup_Module__state__V)

.data:xdc_runtime_System_Module__state__V 
*          0    200001f8    00000008     UNINITIALIZED
                  200001f8    00000008     app_ble_pem3.oem3 (.data:xdc_runtime_System_Module__state__V)

.data:xdc_runtime_Memory_Module__state__V 
*          0    20000200    00000004     UNINITIALIZED
                  20000200    00000004     app_ble_pem3.oem3 (.data:xdc_runtime_Memory_Module__state__V)

.data      0    20000208    00001c49     UNINITIALIZED
                  20000208    000005fc     Keyboard.obj (.data:$O1$$)
                  20000804    00000394     hiddev.obj (.data:$O17$$)
                  20000b98    0000036c     peripheral.obj (.data:$O19$$)
                  20000f04    00000328     hidemukbd.obj (.data:$O3$$)
                  2000122c    00000004     ble_user_config.obj (.data)
                  20001230    00000278     RF.obj (.data:$O7$$)
                  200014a8    0000023c     hidkbdservice.obj (.data:$O18$$)
                  200016e4    000001d4     devinfoservice.obj (.data:$O15$$)
                  200018b8    0000010c     drivers_cc26xxware.aem3 : PowerCC26XX.oem3 (.data:PowerCC26XX_module)
                  200019c4    000000a0     icall.obj (.data:$O10$$)
                  20001a64    00000078     battservice.obj (.data:$O14$$)
                  20001adc    0000006c     scanparamservice.obj (.data:$O20$$)
                  20001b48    00000050     ble_user_config.obj (.data:rfRegTbl)
                  20001b98    0000004c     app_ble_pem3.oem3 (.data:ti_sysbios_knl_Task_Object__table__V)
                  20001be4    00000004     rtsv7M3_T_le_eabi.lib : stkdepth_vars.obj (.data)
                  20001be8    00000048     app_ble_pem3.oem3 (.data:ti_sysbios_family_arm_cc26xx_Timer_Object__table__V)
                  20001c30    00000038     app_ble_pem3.oem3 (.data:ti_sysbios_gates_GateMutex_Object__table__V)
                  20001c68    00000030     app_ble_pem3.oem3 (.data:ti_sysbios_knl_Swi_Module_State_0_readyQ__A)
                  20001c98    00000030     app_ble_pem3.oem3 (.data:ti_sysbios_knl_Swi_Object__table__V)
                  20001cc8    00000030     app_ble_pem3.oem3 (.data:ti_sysbios_knl_Task_Module_State_0_readyQ__A)
                  20001cf8    00000028     main.obj (.data:user0Cfg)
                  20001d20    00000020     app_ble_pem3.oem3 (.data:ti_sysbios_knl_Clock_Object__table__V)
                  20001d40    0000001c     LED.obj (.data:$O2$$)
                  20001d5c    00000018     app_ble_pem3.oem3 (.data:ti_sysbios_family_arm_m3_Hwi_Object__table__V)
                  20001d74    00000018     app_ble_pem3.oem3 (.data:ti_sysbios_heaps_HeapMem_Object__table__V)
                  20001d8c    0000000c     rtsv7M3_T_le_eabi.lib : exit.obj (.data:$O1$$)
                  20001d98    0000000c     icall_api.obj (.data:$O13$$)
                  20001da4    0000000c     hidkbdservice.obj (.data)
                  20001db0    0000000c     app_ble_pem3.oem3 (.data:xdc_runtime_SysMin_Module__state__V)
                  20001dbc    00000009     devinfoservice.obj (.data)
                  20001dc5    00000002     hidkbdservice.obj (.data:hidExtReportRefDesc$23)
                  20001dc7    00000001     battservice.obj (.data)
                  20001dc8    00000008     icall_cc2650.obj (.data:$O12$$)
                  20001dd0    00000008     rtsv7M3_T_le_eabi.lib : _lock.obj (.data:$O21$$)
                  20001dd8    00000008     battservice.obj (.data:battLevelPresentation$18)
                  20001de0    00000008     app_ble_pem3.oem3 (.data:ti_sysbios_family_arm_m3_Hwi_Module__root__V)
                  20001de8    00000008     app_ble_pem3.oem3 (.data:ti_sysbios_gates_GateHwi_Module__root__V)
                  20001df0    00000008     app_ble_pem3.oem3 (.data:ti_sysbios_gates_GateMutex_Module__root__V)
                  20001df8    00000008     app_ble_pem3.oem3 (.data:ti_sysbios_hal_Hwi_Module__root__V)
                  20001e00    00000008     app_ble_pem3.oem3 (.data:ti_sysbios_heaps_HeapMem_Module__root__V)
                  20001e08    00000008     app_ble_pem3.oem3 (.data:ti_sysbios_knl_Clock_Module__root__V)
                  20001e10    00000008     app_ble_pem3.oem3 (.data:ti_sysbios_knl_Mailbox_Module__root__V)
                  20001e18    00000008     app_ble_pem3.oem3 (.data:ti_sysbios_knl_Queue_Module__root__V)
                  20001e20    00000008     app_ble_pem3.oem3 (.data:ti_sysbios_knl_Semaphore_Module__root__V)
                  20001e28    00000008     app_ble_pem3.oem3 (.data:ti_sysbios_knl_Swi_Module__root__V)
                  20001e30    00000008     app_ble_pem3.oem3 (.data:ti_sysbios_knl_Task_Module__root__V)
                  20001e38    00000008     app_ble_pem3.oem3 (.data:xdc_runtime_Registry_Module__state__V)
                  20001e40    00000004     app_ble_pem3.oem3 (.data:ti_sysbios_family_arm_m3_Hwi_Module_State_0_excContext__A)
                  20001e44    00000004     app_ble_pem3.oem3 (.data:ti_sysbios_family_arm_m3_Hwi_Module_State_0_excStack__A)
                  20001e48    00000004     app_ble_pem3.oem3 (.data:ti_sysbios_knl_Task_Module_State_0_idleTask__A)
                  20001e4c    00000002     scanparamservice.obj (.data)
                  20001e4e    00000002     app_ble_pem3.oem3 (.data:ti_sysbios_family_arm_m3_Hwi_Module_State_0_excActive__A)
                  20001e50    00000001     hiddev.obj (.data)

.bss       0    20001e58    00000fad     UNINITIALIZED
                  20001e58    00000680     (.common:ti_sysbios_heaps_HeapMem_Instance_State_0_buf__A)
                  200024d8    00000400     (.common:xdc_runtime_SysMin_Module_State_0_outbuf__A)
                  200028d8    00000200     app_ble_pem3.oem3 (.bss:taskStackSection)
                  20002ad8    00000120     rtsv7M3_T_le_eabi.lib : trgmsg.obj (.bss:_CIOBUF_)
                  20002bf8    00000110     PINCC26XX.obj (.bss:$O6$$)
                  20002d08    000000c8     (.common:ti_sysbios_family_arm_m3_Hwi_dispatchTable)
                  20002dd0    00000014     driverlib.lib : osc.obj (.bss:oscHfGlobals$59)
                  20002de4    00000008     RF.obj (.bss)
                  20002dec    00000008     rtsv7M3_T_le_eabi.lib : trgdrv.obj (.bss:parmbuf$39)
                  20002df4    00000008     driverlib.lib : sys_ctrl.obj (.bss:powerQualGlobals$62)
                  20002dfc    00000004     hidkbdservice.obj (.bss)
                  20002e00    00000004     scanparamservice.obj (.bss:scanParamRefresh$25)
                  20002e04    00000001     (.common:driverlib_release_0_45566)

.vtable    0    20002e05    00000000     UNINITIALIZED

.vtable_ram 
*          0    20002e05    00000000     UNINITIALIZED

vtable_ram 
*          0    20002e05    00000000     UNINITIALIZED

.sysmem    0    20002e05    00000000     UNINITIALIZED

.nonretenvar 
*          0    20002e05    00000000     UNINITIALIZED

.stack     0    20003f68    00000400     UNINITIALIZED
                  20003f68    00000400     --HOLE--

.bootVecs 
*          0    00000000    00000008     DSECT
                  00000000    00000008     boot.aem3 : boot.oem3 (.bootVecs)

xdc.meta   0    00000000    000000f7     COPY SECTION
                  00000000    000000f7     app_ble_pem3.oem3 (xdc.meta)

xdc.noload 
*          0    00000000    00000000     COPY SECTION

MODULE SUMMARY

       Module                            code    ro data   rw data
       ------                            ----    -------   -------
    .\Application\
       Keyboard.obj                      1446    0         1532   
       hidemukbd.obj                     960     21        808    
       util.obj                          302     0         0      
       LED.obj                           44      0         28     
    +--+---------------------------------+-------+---------+---------+
       Total:                            2752    21        2368   
                                                                  
    .\Drivers\PIN\
       PINCC26XX.obj                     958     0         272    
    +--+---------------------------------+-------+---------+---------+
       Total:                            958     0         272    
                                                                  
    .\Drivers\RF\
       RF.obj                            5440    12        640    
    +--+---------------------------------+-------+---------+---------+
       Total:                            5440    12        640    
                                                                  
    .\ICallBLE\
       icall_api.obj                     2262    0         12     
       ble_user_config.obj               18      121       84     
    +--+---------------------------------+-------+---------+---------+
       Total:                            2280    121       96     
                                                                  
    .\ICall\
       icall.obj                         2604    192       160    
       icall_cc2650.obj                  466     4         8      
    +--+---------------------------------+-------+---------+---------+
       Total:                            3070    196       168    
                                                                  
    .\PROFILES\
       hiddev.obj                        2686    8         917    
       peripheral.obj                    2138    0         876    
       hidkbdservice.obj                 472     105       590    
       battservice.obj                   576     24        129    
       devinfoservice.obj                196     40        477    
       scanparamservice.obj              272     26        114    
       gattservapp_util.obj              202     0         0      
       gatt_uuid.obj                     0       44        0      
    +--+---------------------------------+-------+---------+---------+
       Total:                            6542    247       3103   
                                                                  
    .\Startup\
       main.obj                          124     0         40     
       ccfg_app_ble.obj                  0       88        0      
       board.obj                         0       60        0      
    +--+---------------------------------+-------+---------+---------+
       Total:                            124     148       40     
                                                                  
    C:\Users\nerya\AppData\Local\Temp\
       658402                            0       0         1      
    +--+---------------------------------+-------+---------+---------+
       Total:                            0       0         1      
                                                                  
    C:\Users\nerya\workspace_v6_2\hid_emu_kbd_cc2650em_app\FlashROM\configPkg\package\cfg\
       app_ble_pem3.oem3                 694     1487      4410   
    +--+---------------------------------+-------+---------+---------+
       Total:                            694     1487      4410   
                                                                  
    C:/ti/tirtos_cc13xx_cc26xx_2_18_00_03/products/cc26xxware_2_23_03_17162/driverlib/bin/ccs/driverlib.lib
       setup.obj                         1794    0         0      
       sys_ctrl.obj                      712     0         8      
       osc.obj                           468     0         20     
       chipinfo.obj                      228     0         0      
       rfc.obj                           164     0         0      
       ddi.obj                           136     0         0      
       aon_rtc.obj                       44      0         0      
       adi.obj                           40      0         0      
       aon_batmon.obj                    40      0         0      
       cpu.obj                           30      0         0      
       vims.obj                          14      0         0      
    +--+---------------------------------+-------+---------+---------+
       Total:                            3670    0         28     
                                                                  
    C:/ti/tirtos_cc13xx_cc26xx_2_18_00_03/products/tidrivers_cc13xx_cc26xx_2_16_01_13/packages/ti/drivers/lib/drivers_cc26xxware.aem3
       PowerCC26XX.oem3                  2140    76        268    
       PowerCC26XX_calibrateRCOSC.oem3   1392    0         0      
       List.oem3                         56      0         0      
    +--+---------------------------------+-------+---------+---------+
       Total:                            3588    76        268    
                                                                  
    C:/ti/tirtos_cc13xx_cc26xx_2_18_00_03/products/tidrivers_cc13xx_cc26xx_2_16_01_13/packages/ti/drivers/lib/power_cc26xx_tirtos.aem3
       PowerCC26XX_tirtos.oem3           188     0         0      
    +--+---------------------------------+-------+---------+---------+
       Total:                            188     0         0      
                                                                  
    C:/ti/tirtos_cc13xx_cc26xx_2_18_00_03/products/tidrivers_cc13xx_cc26xx_2_16_01_13/packages/ti/drivers/ports/lib/tirtosport.aem3
       HwiP_tirtos.oem3                  4       0         0      
    +--+---------------------------------+-------+---------+---------+
       Total:                            4       0         0      
                                                                  
    C:\ti\ccsv6\tools\compiler\arm_15.12.3.LTS\lib\rtsv7M3_T_le_eabi.lib
       ull_div_t2.obj                    500     0         0      
       trgmsg.obj                        104     0         288    
       memcpy_t2.obj                     156     0         0      
       memset_t2.obj                     122     0         0      
       copy_decompress_rle.obj           112     0         0      
       exit.obj                          84      0         12     
       trgdrv.obj                        84      0         8      
       cpy_tbl.obj                       76      0         0      
       u_divt2.obj                       64      0         0      
       _lock.obj                         20      0         8      
       args_main.obj                     24      0         0      
       ll_mul_t2.obj                     24      0         0      
       strlen.obj                        20      0         0      
       copy_decompress_none.obj          14      0         0      
       stkdepth_vars.obj                 0       0         4      
       i_div0.obj                        2       0         0      
    +--+---------------------------------+-------+---------+---------+
       Total:                            1406    0         320    
                                                                  
    C:\ti\simplelink\ble_sdk_2_02_00_31\examples\cc2650em\hid_emu_kbd\ccs\config\src\sysbios\rom_sysbios.aem3
       rom_sysbios.obj                   2515    0         0      
       rom_sysbios_config.obj            38      0         0      
    +--+---------------------------------+-------+---------+---------+
       Total:                            2553    0         0      
                                                                  
    C:\ti\tirtos_cc13xx_cc26xx_2_18_00_03\products\bios_6_45_02_31\packages\ti\targets\arm\rtsarm\lib\auto_init.aem3
       auto_init.oem3                    160     0         0      
    +--+---------------------------------+-------+---------+---------+
       Total:                            160     0         0      
                                                                  
    C:\ti\tirtos_cc13xx_cc26xx_2_18_00_03\products\bios_6_45_02_31\packages\ti\targets\arm\rtsarm\lib\boot.aem3
       boot.oem3                         68      0         0      
    +--+---------------------------------+-------+---------+---------+
       Total:                            68      0         0      
                                                                  
       Stack:                            0       0         1024   
       Linker Generated:                 472     2454      0      
    +--+---------------------------------+-------+---------+---------+
       Grand Total:                      33969   4762      12738  


LINKER GENERATED COPY TABLES

__TI_cinit_table @ 000096dc records: 13, size/record: 8, table size: 104
	.data: load addr=00008d70, load size=00000836 bytes, run addr=20000208, run size=00001c49 bytes, compression=rle
	.data:ti_sysbios_family_arm_m3_Hwi_Module__state__V: load addr=000095a8, load size=0000002d bytes, run addr=20000144, run size=00000034 bytes, compression=rle
	.data:ti_sysbios_knl_Task_Module__state__V: load addr=000095d8, load size=0000002c bytes, run addr=20000100, run size=00000044 bytes, compression=rle
	.data:ti_sysbios_knl_Clock_Module__state__V: load addr=00009608, load size=00000021 bytes, run addr=20000178, run size=0000002c bytes, compression=rle
	.data:ti_sysbios_BIOS_Module__state__V: load addr=00009630, load size=0000001f bytes, run addr=200001a4, run size=00000024 bytes, compression=rle
	.data:ti_sysbios_knl_Swi_Module__state__V: load addr=00009650, load size=00000011 bytes, run addr=200001c8, run size=0000001c bytes, compression=rle
	.data:ti_sysbios_family_arm_cc26xx_Timer_Module__state__V: load addr=00009668, load size=0000000d bytes, run addr=200001e4, run size=00000008 bytes, compression=rle
	.bss: load addr=00009678, load size=0000000b bytes, run addr=20001e58, run size=00000fad bytes, compression=rle
	.data:xdc_runtime_Memory_Module__state__V: load addr=00009688, load size=0000000a bytes, run addr=20000200, run size=00000004 bytes, compression=rle
	.data:ti_sysbios_family_arm_cc26xx_TimestampProvider_Module__state__V: load addr=00009698, load size=00000009 bytes, run addr=200001ec, run size=00000004 bytes, compression=rle
	.data:xdc_runtime_Startup_Module__state__V: load addr=000096a8, load size=00000009 bytes, run addr=200001f0, run size=00000008 bytes, compression=rle
	.data:xdc_runtime_System_Module__state__V: load addr=000096b8, load size=00000009 bytes, run addr=200001f8, run size=00000008 bytes, compression=rle
	.vecs: load addr=000096c8, load size=00000009 bytes, run addr=20000000, run size=000000c8 bytes, compression=rle


LINKER GENERATED HANDLER TABLE

__TI_handler_table @ 000096d4 records: 2, size/record: 4, table size: 8
	index: 0, handler: __TI_decompress_rle24
	index: 1, handler: __TI_decompress_none


FAR CALL TRAMPOLINES

callee name               trampoline name
   callee addr  tramp addr   call addr  call info
--------------  -----------  ---------  ----------------
ti_sysbios_family_arm_m3_Hwi_enableInterrupt__E  $Tramp$TT$L$PI$$ti_sysbios_family_arm_m3_Hwi_enableInterrupt__E
   1001b2dd     000000f4     000000ce   RF.obj (.text:fsmPowerUpState$8)
xdc_runtime_Core_assignParams__I  $Tramp$TT$L$PI$$xdc_runtime_Core_assignParams__I
   1001c5f1     00008810     000086f4   rom_sysbios.aem3 : rom_sysbios_config.obj (.text:ti_sysbios_hal_Hwi_Params__init__S)
ti_sysbios_hal_Hwi_enableInterrupt__E  $Tramp$TT$L$PI$$ti_sysbios_hal_Hwi_enableInterrupt__E
   1001c285     00008818     0000867c   icall.obj (.text:ICall_primEnableInt$14)
ti_sysbios_hal_Hwi_disableInterrupt__E  $Tramp$TT$L$PI$$ti_sysbios_hal_Hwi_disableInterrupt__E
   1001c281     00008820     00008670   icall.obj (.text:ICall_primDisableInt$14)
ti_sysbios_knl_Queue_construct  $Tramp$TT$L$PI$$ti_sysbios_knl_Queue_construct
   1001b8f5     00008828     0000857e   util.obj (.text:Util_constructQueue)
ti_sysbios_knl_Task_enable__E  $Tramp$TT$L$PI$$ti_sysbios_knl_Task_enable__E
   1001c243     00008830     00008538   icall.obj (.text:ICall_primEnableMInt$14)
ti_sysbios_family_arm_m3_Hwi_enableFxn__E  $Tramp$TT$L$PI$$ti_sysbios_family_arm_m3_Hwi_enableFxn__E
   1001c155     00008838     00008534   icall.obj (.text:ICall_primEnableMInt$14)
xdc_runtime_Startup_startMods__I  $Tramp$TT$L$PI$$xdc_runtime_Startup_startMods__I
   1001c30d     00008840     000083ee   app_ble_pem3.oem3 (.text:xdc_runtime_Startup_exec__I)
ti_sysbios_knl_Clock_logTick__E  $Tramp$TT$L$PI$$ti_sysbios_knl_Clock_logTick__E
   1001be67     00008848     000083d2   app_ble_pem3.oem3 (.text:ti_sysbios_knl_Clock_doTick__I)
ti_sysbios_knl_Swi_post__E  $Tramp$TT$L$PI$$ti_sysbios_knl_Swi_post__E
   1001b321     00008850     00008258   rom_sysbios.aem3 : rom_sysbios.obj (.text:ti_sysbios_knl_Swi_or__E)
                             000083da   app_ble_pem3.oem3 (.text:ti_sysbios_knl_Clock_doTick__I)
ti_sysbios_BIOS_RtsGateProxy_leave__E  $Tramp$TT$L$PI$$ti_sysbios_BIOS_RtsGateProxy_leave__E
   1001c24d     00008858     0000823a   app_ble_pem3.oem3 (.text:ti_sysbios_BIOS_rtsUnlock__I)
ti_sysbios_BIOS_RtsGateProxy_enter__E  $Tramp$TT$L$PI$$ti_sysbios_BIOS_RtsGateProxy_enter__E
   1001c249     00008860     00007afa   app_ble_pem3.oem3 (.text:ti_sysbios_BIOS_rtsLock__I)
ti_sysbios_knl_Queue_dequeue__E  $Tramp$TT$L$PI$$ti_sysbios_knl_Queue_dequeue__E
   1001c1a9     00008868     00007aa6   util.obj (.text:Util_dequeueMsg)
ti_sysbios_knl_Task_startup__E  $Tramp$TT$L$PI$$ti_sysbios_knl_Task_startup__E
   1001c309     00008870     00007898   app_ble_pem3.oem3 (.text:ti_sysbios_BIOS_startFunc__I)
ti_sysbios_knl_Swi_startup__E  $Tramp$TT$L$PI$$ti_sysbios_knl_Swi_startup__E
   1001c23d     00008878     00007894   app_ble_pem3.oem3 (.text:ti_sysbios_BIOS_startFunc__I)
ti_sysbios_hal_Hwi_startup__E  $Tramp$TT$L$PI$$ti_sysbios_hal_Hwi_startup__E
   1001c28d     00008880     00007890   app_ble_pem3.oem3 (.text:ti_sysbios_BIOS_startFunc__I)
ti_sysbios_family_arm_cc26xx_Timer_startup__E  $Tramp$TT$L$PI$$ti_sysbios_family_arm_cc26xx_Timer_startup__E
   1001b795     00008888     0000788c   app_ble_pem3.oem3 (.text:ti_sysbios_BIOS_startFunc__I)
xdc_runtime_System_atexit__E  $Tramp$TT$L$PI$$xdc_runtime_System_atexit__E
   1001c681     00008890     00007884   app_ble_pem3.oem3 (.text:ti_sysbios_BIOS_startFunc__I)
ti_sysbios_knl_Queue_enqueue__E  $Tramp$TT$L$PI$$ti_sysbios_knl_Queue_enqueue__E
   1001c1b5     00008898     00007074   util.obj (.text:Util_enqueueMsg)
ti_sysbios_BIOS_setThreadType__E  $Tramp$TT$L$PI$$ti_sysbios_BIOS_setThreadType__E
   1001c045     000088a0     00006e30   app_ble_pem3.oem3 (.text:ti_sysbios_BIOS_atExitFunc__I)
                             000082c0   app_ble_pem3.oem3 (.text:ti_sysbios_BIOS_exitFunc__I)
ti_sysbios_hal_Hwi_create  $Tramp$TT$L$PI$$ti_sysbios_hal_Hwi_create
   1001ab79     000088a8     0000692c   icall.obj (.text:ICall_primRegisterISR$14)
                             00006960   icall.obj (.text:ICall_primRegisterISR_Ext$14)
ti_sysbios_BIOS_start__E  $Tramp$TT$L$PI$$ti_sysbios_BIOS_start__E
   1001c055     000088b0     0000678c   main.obj (.text:main)
xdc_runtime_Gate_leaveSystem__E  $Tramp$TT$L$PI$$xdc_runtime_Gate_leaveSystem__E
   1001c879     000088b8     00005ff4   rom_sysbios.aem3 : rom_sysbios.obj (.text:xdc_runtime_SysMin_flush__E)
                             000067f4                    : rom_sysbios.obj (.text:xdc_runtime_SysMin_putch__E)
xdc_runtime_Gate_enterSystem__E  $Tramp$TT$L$PI$$xdc_runtime_Gate_enterSystem__E
   1001c885     000088c0     00005fc6   rom_sysbios.aem3 : rom_sysbios.obj (.text:xdc_runtime_SysMin_flush__E)
                             000067d6                    : rom_sysbios.obj (.text:xdc_runtime_SysMin_putch__E)
ti_sysbios_knl_Task_construct  $Tramp$TT$L$PI$$ti_sysbios_knl_Task_construct
   1001b125     000088c8     00005f2c   Keyboard.obj (.text:createTask)
                             0000617e   peripheral.obj (.text:GAPRole_createTask)
                             000063ac   hiddev.obj (.text:HidDev_createTask)
                             000063e8   hidemukbd.obj (.text:HidEmuKbd_createTask)
xdc_runtime_System_exit__E  $Tramp$TT$L$PI$$xdc_runtime_System_exit__E
   1001c7d1     000088d0     00005ee0   boot.aem3 : boot.oem3 (.text)
                             000082c6   app_ble_pem3.oem3 (.text:ti_sysbios_BIOS_exitFunc__I)
ti_sysbios_knl_Semaphore_create  $Tramp$TT$L$PI$$ti_sysbios_knl_Semaphore_create
   1001b5ad     000088d8     00005894   icall.obj (.text:ICall_newTask$14)
ti_sysbios_knl_Task_create  $Tramp$TT$L$PI$$ti_sysbios_knl_Task_create
   1001ae19     000088e0     00004870   icall.obj (.text:ICall_createRemoteTasks)
                             000060b8   icall.obj (.text:ICall_primCreateTask$14)
ti_sysbios_knl_Task_Params__init__S  $Tramp$TT$L$PI$$ti_sysbios_knl_Task_Params__init__S
   1001c1d9     000088e8     00004850   icall.obj (.text:ICall_createRemoteTasks)
                             00005f08   Keyboard.obj (.text:createTask)
                             000060a2   icall.obj (.text:ICall_primCreateTask$14)
                             0000615e   peripheral.obj (.text:GAPRole_createTask)
                             0000638e   hiddev.obj (.text:HidDev_createTask)
                             000063ca   hidemukbd.obj (.text:HidEmuKbd_createTask)
ti_sysbios_knl_Clock_create  $Tramp$TT$L$PI$$ti_sysbios_knl_Clock_create
   1001b3ed     000088f0     00003faa   icall.obj (.text:ICall_primSetTimer$14)
ti_sysbios_knl_Clock_scheduleNextTick__E  $Tramp$TT$L$PI$$ti_sysbios_knl_Clock_scheduleNextTick__E
   1001bebd     000088f8     00003d2e   rom_sysbios.aem3 : rom_sysbios.obj (.text:ti_sysbios_knl_Clock_workFuncDynamic__E)
ti_sysbios_knl_Clock_walkQueueDynamic__E  $Tramp$TT$L$PI$$ti_sysbios_knl_Clock_walkQueueDynamic__E
   1001a80d     00008900     00003cf6   rom_sysbios.aem3 : rom_sysbios.obj (.text:ti_sysbios_knl_Clock_workFuncDynamic__E)
                             00003d12                    : rom_sysbios.obj (.text:ti_sysbios_knl_Clock_workFuncDynamic__E)
ti_sysbios_knl_Clock_TimerProxy_getCurrentTick__E  $Tramp$TT$L$PI$$ti_sysbios_knl_Clock_TimerProxy_getCurrentTick__E
   1001c095     00008908     00003cc4   rom_sysbios.aem3 : rom_sysbios.obj (.text:ti_sysbios_knl_Clock_workFuncDynamic__E)
                             000073b2                    : rom_sysbios.obj (.text:ti_sysbios_knl_Clock_getTicksUntilInterrupt__E)
xdc_runtime_System_abort__E  $Tramp$TT$L$PI$$xdc_runtime_System_abort__E
   1001c749     00008910     000032ea   Keyboard.obj (.text:keyboardTx)
ti_sysbios_family_arm_m3_Hwi_destruct  $Tramp$TT$L$PI$$ti_sysbios_family_arm_m3_Hwi_destruct
   1001c261     00008918     0000324a   RF.obj (.text:RF_close)
                             0000325a   RF.obj (.text:RF_close)
ti_sysbios_knl_Swi_destruct  $Tramp$TT$L$PI$$ti_sysbios_knl_Swi_destruct
   1001c2e9     00008920     00003242   RF.obj (.text:RF_close)
                             00003252   RF.obj (.text:RF_close)
ti_sysbios_knl_Clock_destruct  $Tramp$TT$L$PI$$ti_sysbios_knl_Clock_destruct
   1001c2b9     00008928     0000323a   RF.obj (.text:RF_close)
                             00003262   RF.obj (.text:RF_close)
                             00003292   RF.obj (.text:RF_close)
ti_sysbios_knl_Semaphore_destruct  $Tramp$TT$L$PI$$ti_sysbios_knl_Semaphore_destruct
   1001c2e1     00008930     00003232   RF.obj (.text:RF_close)
                             0000328a   RF.obj (.text:RF_close)
ti_sysbios_knl_Queue_empty__E  $Tramp$TT$L$PI$$ti_sysbios_knl_Queue_empty__E
   1001c113     00008938     00002fae   hiddev.obj (.text:HidDev_taskFxn$22)
                             00004b04   hidemukbd.obj (.text:HidEmuKbd_taskFxn$2)
                             00007a98   util.obj (.text:Util_dequeueMsg)
ti_sysbios_knl_Semaphore_pend__E  $Tramp$TT$L$PI$$ti_sysbios_knl_Semaphore_pend__E
   1001a0cd     00008940     00002df0   icall.obj (.text:ICall_primWaitMatch$14)
                             0000322a   RF.obj (.text:RF_close)
                             00003786   RF.obj (.text:RF_pendCmd)
                             00003c2c   PINCC26XX.obj (.text:PIN_open)
                             00004f18   Keyboard.obj (.text:taskFxn)
                             00005634   icall.obj (.text:ICall_primWait$14)
ti_sysbios_knl_Clock_getTicks__E  $Tramp$TT$L$PI$$ti_sysbios_knl_Clock_getTicks__E
   1001b6d9     00008948     00002ddc   icall.obj (.text:ICall_primWaitMatch$14)
                             00002e46   icall.obj (.text:ICall_primWaitMatch$14)
                             00008552   icall.obj (.text:ICall_primGetTicks$14)
ti_sysbios_knl_Task_self__E  $Tramp$TT$L$PI$$ti_sysbios_knl_Task_self__E
   1001c1e5     00008950     00002d92   icall.obj (.text:ICall_primWaitMatch$14)
                             00004d90   icall.obj (.text:ICall_primEnroll$14)
                             00004fe0   icall.obj (.text:ICall_primThreadServes$14)
                             000055f4   icall.obj (.text:ICall_primWait$14)
                             000056e8   icall.obj (.text:ICall_primRegisterApp$14)
                             000058c0   icall.obj (.text:ICall_primGetEntityId$14)
                             000068dc   icall.obj (.text:ICall_primFetchMsg$14)
ti_sysbios_knl_Semaphore_post__E  $Tramp$TT$L$PI$$ti_sysbios_knl_Semaphore_post__E
   1001ac41     00008958     00002b1e   Keyboard.obj (.text:rxCallback$0)
                             00002e64   icall.obj (.text:ICall_primWaitMatch$14)
                             00003026   hiddev.obj (.text:HidDev_taskFxn$22)
                             00003c9e   PINCC26XX.obj (.text:PIN_open)
                             00004064   hiddev.obj (.text:HidDev_processStateChangeEvt$22)
                             000043c6   hiddev.obj (.text:HidDev_processPairStateEvt$22)
                             000044a2   icall.obj (.text:ICall_primSend$14)
                             00004ab6   hiddev.obj (.text:HidDev_enqueueReport$22)
                             00004bb0   RF.obj (.text:fsmPowerDownState$8)
                             0000581c   RF.obj (.text:syncCb$8)
                             0000707c   util.obj (.text:Util_enqueueMsg)
                             0000752e   hiddev.obj (.text:HidDev_reportReadyClockCB$22)
                             00007fe2   hiddev.obj (.text:HidDev_clockHandler$22)
                             000081da   peripheral.obj (.text:gapRole_setEvent$24)
                             00008694   icall.obj (.text:ICall_primSignal$14)
ti_sysbios_knl_Clock_construct  $Tramp$TT$L$PI$$ti_sysbios_knl_Clock_construct
   1001b579     00008960     00002594   drivers_cc26xxware.aem3 : PowerCC26XX.oem3 (.text:Power_init)
                             000025a2                           : PowerCC26XX.oem3 (.text:Power_init)
                             000025b0                           : PowerCC26XX.oem3 (.text:Power_init)
                             00002c3c   RF.obj (.text:rf_init$8)
                             00003582   RF.obj (.text:RF_open)
                             0000495a   drivers_cc26xxware.aem3 : PowerCC26XX.oem3 (.text:PowerCC26XX_calibrate)
                             00005cbc   util.obj (.text:Util_constructClock)
ti_sysbios_knl_Clock_Params__init__S  $Tramp$TT$L$PI$$ti_sysbios_knl_Clock_Params__init__S
   1001c185     00008968     0000257c   drivers_cc26xxware.aem3 : PowerCC26XX.oem3 (.text:Power_init)
                             00003572   RF.obj (.text:RF_open)
                             00003f96   icall.obj (.text:ICall_primSetTimer$14)
                             00004940   drivers_cc26xxware.aem3 : PowerCC26XX.oem3 (.text:PowerCC26XX_calibrate)
                             00005c96   util.obj (.text:Util_constructClock)
ti_sysbios_knl_Swi_construct  $Tramp$TT$L$PI$$ti_sysbios_knl_Swi_construct
   1001b085     00008970     00001f7a   PINCC26XX.obj (.text:PIN_init)
                             00002bc8   RF.obj (.text:rf_init$8)
                             00002c0a   RF.obj (.text:rf_init$8)
ti_sysbios_knl_Swi_Params__init__S  $Tramp$TT$L$PI$$ti_sysbios_knl_Swi_Params__init__S
   1001c1cd     00008978     00001f66   PINCC26XX.obj (.text:PIN_init)
                             00002bb4   RF.obj (.text:rf_init$8)
                             00002bfa   RF.obj (.text:rf_init$8)
ti_sysbios_family_arm_m3_Hwi_construct  $Tramp$TT$L$PI$$ti_sysbios_family_arm_m3_Hwi_construct
   1001af29     00008980     00001f5a   PINCC26XX.obj (.text:PIN_init)
                             00002bee   RF.obj (.text:rf_init$8)
                             00002c2e   RF.obj (.text:rf_init$8)
                             0000496a   drivers_cc26xxware.aem3 : PowerCC26XX.oem3 (.text:PowerCC26XX_calibrate)
ti_sysbios_family_arm_m3_Hwi_Params__init__S  $Tramp$TT$L$PI$$ti_sysbios_family_arm_m3_Hwi_Params__init__S
   1001c13d     00008988     00001f44   PINCC26XX.obj (.text:PIN_init)
                             00002bd4   RF.obj (.text:rf_init$8)
                             00002c16   RF.obj (.text:rf_init$8)
ti_sysbios_knl_Semaphore_construct  $Tramp$TT$L$PI$$ti_sysbios_knl_Semaphore_construct
   1001b709     00008990     00001ee2   PINCC26XX.obj (.text:PIN_init)
                             00003566   RF.obj (.text:RF_open)
                             00007366   Keyboard.obj (.text:createSemaphore)
ti_sysbios_knl_Semaphore_Params__init__S  $Tramp$TT$L$PI$$ti_sysbios_knl_Semaphore_Params__init__S
   1001c1c1     00008998     00001ece   PINCC26XX.obj (.text:PIN_init)
                             00003556   RF.obj (.text:RF_open)
                             00007356   Keyboard.obj (.text:createSemaphore)
ti_sysbios_knl_Task_restore__E  $Tramp$TT$L$PI$$ti_sysbios_knl_Task_restore__E
   1001ba49     000089a0     0000160c   drivers_cc26xxware.aem3 : PowerCC26XX.oem3 (.text:Power_sleep)
                             0000488e   icall.obj (.text:ICall_createRemoteTasks)
                             0000829a   icall.obj (.text:ICall_leaveCSImpl)
ti_sysbios_knl_Swi_restore__E  $Tramp$TT$L$PI$$ti_sysbios_knl_Swi_restore__E
   1001b5e1     000089a8     00001602   drivers_cc26xxware.aem3 : PowerCC26XX.oem3 (.text:Power_sleep)
                             00001c12   RF.obj (.text:abortCmd$8)
                             00003736   RF.obj (.text:RF_pendCmd)
                             0000377a   RF.obj (.text:RF_pendCmd)
                             00003794   RF.obj (.text:RF_pendCmd)
ti_sysbios_knl_Swi_disable__E  $Tramp$TT$L$PI$$ti_sysbios_knl_Swi_disable__E
   1001c0d5     000089b0     0000145e   drivers_cc26xxware.aem3 : PowerCC26XX.oem3 (.text:Power_sleep)
                             00001bca   RF.obj (.text:abortCmd$8)
                             0000370a   RF.obj (.text:RF_pendCmd)
                             00006e26   app_ble_pem3.oem3 (.text:ti_sysbios_BIOS_atExitFunc__I)
ti_sysbios_knl_Task_disable__E  $Tramp$TT$L$PI$$ti_sysbios_knl_Task_disable__E
   1001c0f5     000089b8     00001446   drivers_cc26xxware.aem3 : PowerCC26XX.oem3 (.text:Power_sleep)
                             00004842   icall.obj (.text:ICall_createRemoteTasks)
                             00006e2a   app_ble_pem3.oem3 (.text:ti_sysbios_BIOS_atExitFunc__I)
                             00007e1e   icall.obj (.text:ICall_enterCSImpl)
                             00008526   icall.obj (.text:ICall_primDisableMInt$14)
ti_sysbios_family_arm_m3_Hwi_restoreFxn__E  $Tramp$TT$L$PI$$ti_sysbios_family_arm_m3_Hwi_restoreFxn__E
   1001c219     000089c0     00000f38   RF.obj (.text:fsmActiveState$8)
                             00001ad4   RF.obj (.text:abortCmd$8)
                             00001b38   RF.obj (.text:abortCmd$8)
                             00001b54   RF.obj (.text:abortCmd$8)
                             00001bde   RF.obj (.text:abortCmd$8)
                             00001ff0   RF.obj (.text:RF_postCmd)
                             00002006   RF.obj (.text:RF_postCmd)
                             000020a2   RF.obj (.text:RF_postCmd)
                             000020d4   RF.obj (.text:RF_postCmd)
                             00002102   RF.obj (.text:RF_postCmd)
                             00002144   RF.obj (.text:RF_postCmd)
                             000030ee   drivers_cc26xxware.aem3 : PowerCC26XX.oem3 (.text:Power_releaseDependency)
                             000031be                           : PowerCC26XX.oem3 (.text:Power_setDependency)
                             00003210   RF.obj (.text:RF_close)
                             00003278   RF.obj (.text:RF_close)
                             000033b2   RF.obj (.text:swiFxnHw$8)
                             000033d0   RF.obj (.text:swiFxnHw$8)
                             00003518   RF.obj (.text:RF_open)
                             00003526   RF.obj (.text:RF_open)
                             00003634   PINCC26XX.obj (.text:PINCC26XX_setIoCfg$7)
                             000038e8   RF.obj (.text:RF_ratCapture)
                             00003e56   drivers_cc26xxware.aem3 : PowerCC26XX.oem3 (.text:switchXOSCHFclockFunc)
                             00004150   RF.obj (.text:RF_ratDisableChannel)
                             000049e0   RF.obj (.text:RF_yield)
                             00004dfe   RF.obj (.text:RF_getCurrentTime)
                             00004e06   RF.obj (.text:RF_getCurrentTime)
                             00005188   RF.obj (.text:decActiveClientCnt$8)
                             00005276   drivers_cc26xxware.aem3 : PowerCC26XX_calibrateRCOSC.oem3 (.text:PowerCC26XX_initiateCalibration)
                             000054e6   RF.obj (.text:ratChanFree$8)
                             00005776   RF.obj (.text:RF_getInfo)
                             000061f0   RF.obj (.text:RF_getRssi)
                             000064c8   RF.obj (.text:postDirImmCmd$8)
                             000064dc   RF.obj (.text:postDirImmCmd$8)
                             00006a34   drivers_cc26xxware.aem3 : PowerCC26XX.oem3 (.text:PowerCC26XX_isStableXOSC_HF)
                             00006a70   RF.obj (.text:Q_push$8)
                             00006db8   drivers_cc26xxware.aem3 : PowerCC26XX.oem3 (.text:Power_releaseConstraint)
                             00006de8                           : PowerCC26XX.oem3 (.text:Power_setConstraint)
                             0000733c                           : PowerCC26XX.oem3 (.text:PowerCC26XX_switchXOSC_HF)
                             000076ec                           : List.oem3 (.text:List_put)
                             0000817c   RF.obj (.text:Q_pop$8)
                             00008292   icall.obj (.text:ICall_leaveCSImpl)
ti_sysbios_family_arm_m3_Hwi_disableFxn__E  $Tramp$TT$L$PI$$ti_sysbios_family_arm_m3_Hwi_disableFxn__E
   1001c149     000089c8     00000f24   RF.obj (.text:fsmActiveState$8)
                             00001a5a   RF.obj (.text:abortCmd$8)
                             00001fd4   RF.obj (.text:RF_postCmd)
                             00002084   RF.obj (.text:RF_postCmd)
                             000020b6   RF.obj (.text:RF_postCmd)
                             00002116   RF.obj (.text:RF_postCmd)
                             0000303a   drivers_cc26xxware.aem3 : PowerCC26XX.oem3 (.text:Power_releaseDependency)
                             0000310e                           : PowerCC26XX.oem3 (.text:Power_setDependency)
                             000031fe   RF.obj (.text:RF_close)
                             00003366   RF.obj (.text:swiFxnHw$8)
                             00003510   RF.obj (.text:RF_open)
                             00003614   PINCC26XX.obj (.text:PINCC26XX_setIoCfg$7)
                             0000387e   RF.obj (.text:RF_ratCapture)
                             00003de0   drivers_cc26xxware.aem3 : PowerCC26XX.oem3 (.text:switchXOSCHFclockFunc)
                             00004122   RF.obj (.text:RF_ratDisableChannel)
                             00004984   RF.obj (.text:RF_yield)
                             00004dee   RF.obj (.text:RF_getCurrentTime)
                             00005140   RF.obj (.text:decActiveClientCnt$8)
                             00005262   drivers_cc26xxware.aem3 : PowerCC26XX_calibrateRCOSC.oem3 (.text:PowerCC26XX_initiateCalibration)
                             000054a4   RF.obj (.text:ratChanFree$8)
                             0000573a   RF.obj (.text:RF_getInfo)
                             000061e0   RF.obj (.text:RF_getRssi)
                             000064b0   RF.obj (.text:postDirImmCmd$8)
                             00006a12   drivers_cc26xxware.aem3 : PowerCC26XX.oem3 (.text:PowerCC26XX_isStableXOSC_HF)
                             00006a52   RF.obj (.text:Q_push$8)
                             00006a5a   RF.obj (.text:Q_push$8)
                             00006d98   drivers_cc26xxware.aem3 : PowerCC26XX.oem3 (.text:Power_releaseConstraint)
                             00006dc8                           : PowerCC26XX.oem3 (.text:Power_setConstraint)
                             0000731e                           : PowerCC26XX.oem3 (.text:PowerCC26XX_switchXOSC_HF)
                             00007e28   icall.obj (.text:ICall_enterCSImpl)
                             00008170   RF.obj (.text:Q_pop$8)
                             0000852a   icall.obj (.text:ICall_primDisableMInt$14)
                             000087da   tirtosport.aem3 : HwiP_tirtos.oem3 (.text:HwiP_disable)
ti_sysbios_knl_Clock_start__E  $Tramp$TT$L$PI$$ti_sysbios_knl_Clock_start__E
   1001bfe3     000089d0     00000f02   RF.obj (.text:fsmActiveState$8)
                             000020fa   RF.obj (.text:RF_postCmd)
                             000022be   drivers_cc26xxware.aem3 : PowerCC26XX_calibrateRCOSC.oem3 (.text:PowerCC26XX_doCalibrate)
                             0000262e                           : PowerCC26XX.oem3 (.text:Power_init)
                             00003468   power_cc26xx_tirtos.aem3 : PowerCC26XX_tirtos.oem3 (.text:PowerCC26XX_standbyPolicy)
                             00003e2e   drivers_cc26xxware.aem3 : PowerCC26XX.oem3 (.text:switchXOSCHFclockFunc)
                             00003fee   icall.obj (.text:ICall_primSetTimer$14)
                             000041a8   drivers_cc26xxware.aem3 : PowerCC26XX.oem3 (.text:disableLFClockQualifiers)
                             00005182   RF.obj (.text:decActiveClientCnt$8)
                             0000538e   drivers_cc26xxware.aem3 : PowerCC26XX.oem3 (.text:configureXOSCHF)
                             000053ca   RF.obj (.text:fsmXOSCState$8)
                             000066a8   util.obj (.text:Util_restartClock)
                             00007b26   rom_sysbios.aem3 : rom_sysbios.obj (.text:ti_sysbios_knl_Clock_stop__E)
                             000087ee   util.obj (.text:Util_startClock)
ti_sysbios_knl_Clock_setTimeout__E  $Tramp$TT$L$PI$$ti_sysbios_knl_Clock_setTimeout__E
   1001c2c1     000089d8     00000efa   RF.obj (.text:fsmActiveState$8)
                             000020f2   RF.obj (.text:RF_postCmd)
                             00002628   drivers_cc26xxware.aem3 : PowerCC26XX.oem3 (.text:Power_init)
                             00003462   power_cc26xx_tirtos.aem3 : PowerCC26XX_tirtos.oem3 (.text:PowerCC26XX_standbyPolicy)
                             00003e28   drivers_cc26xxware.aem3 : PowerCC26XX.oem3 (.text:switchXOSCHFclockFunc)
                             00003fe8   icall.obj (.text:ICall_primSetTimer$14)
                             000041a2   drivers_cc26xxware.aem3 : PowerCC26XX.oem3 (.text:disableLFClockQualifiers)
                             0000517c   RF.obj (.text:decActiveClientCnt$8)
                             00005388   drivers_cc26xxware.aem3 : PowerCC26XX.oem3 (.text:configureXOSCHF)
                             000053c4   RF.obj (.text:fsmXOSCState$8)
                             000066a2   util.obj (.text:Util_restartClock)

[59 trampolines]
[241 trampoline calls]


GLOBAL SYMBOLS: SORTED ALPHABETICALLY BY Name 

address   name                                                                      
-------   ----                                                                      
10014c00  A1_rw                                                                     
10019ffe  A2_rw                                                                     
10019ffc  A3_rw                                                                     
20004f2c  A4_rw                                                                     
20004f7c  ACCX                                                                      
20004f80  ACCY                                                                      
20004f84  ACCZ                                                                      
0000744d  AONBatMonTemperatureGetDegC                                               
10015229  ATOMICPATTERN                                                             
10016c29  AddRoundKeySubBytes_Sw                                                    
10018a19  AesCcm_authEncrypt_Sw                                                     
10018a35  AesCcm_decryptAuth_Sw                                                     
10018b09  AesCcm_getNumBlocks_Sw                                                    
10018ac5  Aes_decrypt_Sw                                                            
10018a99  Aes_encrypt_Sw                                                            
00005de9  AssertHandler                                                             
00007475  Batt_AddService                                                           
000060d1  Batt_GetParameter                                                         
00007bd1  Batt_MeasLevel                                                            
000082cd  Batt_Register                                                             
00007e85  Batt_SetParameter                                                         
00008bec  BoardGpioInitTable                                                        
000054f5  C$$EXIT                                                                   
00004c27  C$$IO$$                                                                   
20004f2c  COMMON_RAM_BASE_ADDR                                                      
10014c01  COMMON_ROM_BASE_ADDR                                                      
10015a6d  COPY                                                                      
00005ad1  ChipInfo_GetChipFamily                                                    
00004615  ChipInfo_GetHwRevision                                                    
00007e9d  ChipInfo_GetPackageType                                                   
00000501  DefaultAssertCback                                                        
000082e1  DevInfo_AddService                                                        
10017959  ECC_allocWorkzone                                                         
10017961  ECC_setWin                                                                
10017969  ECDSA_sign                                                                
10017b01  ECDSA_verif                                                               
10015a11  EXPORTOPERAND                                                             
20004f78  EXPW                                                                      
20004f6c  EXPX                                                                      
20004f70  EXPY                                                                      
20004f74  EXPZ                                                                      
10016f58  FFMult2                                                                   
10017058  FFMult3                                                                   
10016d05  FFMult_Sw                                                                 
10018d6c  Fill1                                                                     
000052a9  GAPBondMgr_GetParameter                                                   
0000659d  GAPBondMgr_LinkEst                                                        
000076f3  GAPBondMgr_LinkTerm                                                       
00006c75  GAPBondMgr_PasscodeRsp                                                    
0000749d  GAPBondMgr_Register                                                       
0000683d  GAPBondMgr_SetParameter                                                   
000082f5  GAPRole_GetParameter                                                      
00006111  GAPRole_SendUpdateParam                                                   
00000fad  GAPRole_SetParameter                                                      
00007eb5  GAPRole_StartDevice                                                       
00007ecd  GAPRole_TerminateConnection                                               
00006151  GAPRole_createTask                                                        
00005645  GAP_DeviceInit                                                            
00008409  GAP_EndDiscoverable                                                       
000062cd  GAP_GetParamValue                                                         
000085f5  GAP_MakeDiscoverable                                                      
00006871  GAP_SetParamValue                                                         
00008601  GAP_TerminateAuth                                                         
00005e2d  GAP_TerminateLinkReq                                                      
00005695  GAP_UpdateAdvertisingData                                                 
0000860d  GAP_UpdateLinkParamReq                                                    
000000fd  GATTServApp_AddService                                                    
00007955  GATTServApp_InitCharCfg                                                   
00005a85  GATTServApp_ProcessCCCWriteReq                                            
00008419  GATTServApp_ReadCharCfg                                                   
00006309  GATTServApp_RegisterService                                               
000074c5  GATTServApp_WriteCharCfg                                                  
00007ee5  GATT_Notification                                                         
00007bed  GATT_bm_alloc                                                             
00007c09  GATT_bm_free                                                              
10015141  GETBIT                                                                    
10015155  GETDIGIT                                                                  
100151a5  GETDIGITL2R                                                               
00008757  GGS_AddService                                                            
00008619  GGS_SetParameter                                                          
200019e8  HEAPMGR_SIZE                                                              
00005549  HOSTwrite                                                                 
00002e75  HidDev_ReadAttrCB                                                         
0000710d  HidDev_Register                                                           
00008309  HidDev_RegisterReports                                                    
00006345  HidDev_Report                                                             
0000831d  HidDev_StartAdvertising                                                   
00008625  HidDev_StartDevice                                                        
00007fa5  HidDev_StartIdleTimer                                                     
00007fbd  HidDev_StopIdleTimer                                                      
0000266d  HidDev_WriteAttrCB                                                        
00006381  HidDev_createTask                                                         
000063bd  HidEmuKbd_createTask                                                      
00002781  HidKbd_AddService                                                         
0000660d  HidKbd_GetParameter                                                       
00005825  HidKbd_SetParameter                                                       
000087db  HwiP_disable                                                              
UNDEFED   HwiP_restore                                                              
000063f9  ICallPlatform_pwrConfigACAction                                           
00007fed  ICallPlatform_pwrDispense                                                 
00008509  ICallPlatform_pwrGetTransitionState                                       
00008449  ICallPlatform_pwrGetXOSCStartupTime                                       
00008517  ICallPlatform_pwrIsStableXOSCHF                                           
00006d05  ICallPlatform_pwrRegisterNotify                                           
00008005  ICallPlatform_pwrRequire                                                  
00008729  ICallPlatform_pwrSwitchXOSCHF                                             
000043d1  ICallPlatform_pwrUpdActivityCounter                                       
0000483d  ICall_createRemoteTasks                                                   
200019c4  ICall_dispatcher                                                          
00007e1d  ICall_enterCSImpl                                                         
200019cc  ICall_enterCriticalSection                                                
00007191  ICall_freeImpl                                                            
00007191  ICall_heapFree                                                            
000048a9  ICall_heapInit                                                            
00003ef5  ICall_heapMalloc                                                          
0000753d  ICall_init                                                                
0000828b  ICall_leaveCSImpl                                                         
200019d0  ICall_leaveCriticalSection                                                
0000875d  ICall_mallocImpl                                                          
00006975  ICall_searchServiceEntity                                                 
10015a35  IMPORTDATA                                                                
100159a9  IMPORTLENGTH                                                              
100159ad  IMPORTMODULUS                                                             
100159d1  IMPORTOPERAND                                                             
1001568d  INVERT                                                                    
10016da1  InvAddRoundKey_Sw                                                         
10016ed5  InvMixColumns_Sw                                                          
10016dc9  InvRoundKey_Sw                                                            
10017264  InvSbox                                                                   
10016ea1  InvShiftRows_Sw                                                           
10016e8d  InvSubBytes_Sw                                                            
100154f5  JACADD                                                                    
00008479  Keyboard_changeLedState                                                   
000069a9  Keyboard_init                                                             
00008359  LED_changeState                                                           
0000810d  LED_init                                                                  
20004fe8  LEN                                                                       
100158ac  LUTC                                                                      
100158dc  LUTINCI                                                                   
100158f4  LUTJ                                                                      
1001588c  LUTOPCODE                                                                 
10015894  LUTOPSIGN                                                                 
100158c4  LUTSE                                                                     
1001596c  LUTSTATE                                                                  
0000873d  List_empty                                                                
000087e3  List_head                                                                 
000087e7  List_next                                                                 
000076cd  List_put                                                                  
10018825  MB_ClearInts                                                              
100187f5  MB_DisableInts                                                            
10018835  MB_EnableHWInts                                                           
10018799  MB_EnableInts                                                             
10018945  MB_FwDebugDump                                                            
10018755  MB_Init                                                                   
10018935  MB_ReadMailboxStatus                                                      
1001893d  MB_RegisterIsrCback                                                       
10018865  MB_SendCommand                                                            
100188a5  MB_SendCommandSynch                                                       
20004fe4  MOD                                                                       
20004fd8  MSBMOD                                                                    
10016c79  MixColumns_Sw                                                             
10018b9c  NIST_Curve_P256_Gx                                                        
10018bc0  NIST_Curve_P256_Gy                                                        
10018b54  NIST_Curve_P256_a                                                         
10018b78  NIST_Curve_P256_b                                                         
10018b0c  NIST_Curve_P256_p                                                         
10018b30  NIST_Curve_P256_r                                                         
0000836d  NOROM_AONRTCCurrent64BitValueGet                                          
00008125  NOROM_AONRTCCurrentCompareValueGet                                        
0000869d  NOROM_CPUcpsid                                                            
000086a9  NOROM_CPUcpsie                                                            
00008763  NOROM_CPUdelay                                                            
00006191  NOROM_DDI16BitfieldRead                                                   
00005bf1  NOROM_DDI16BitfieldWrite                                                  
00007ce9  NOROM_OSCClockSourceGet                                                   
00005909  NOROM_OSCClockSourceSet                                                   
0000813d  NOROM_RFCCpeIntGetAndClear                                                
00007a55  NOROM_RFCDoorbellSendTo                                                   
00007a75  NOROM_RFCRfTrimRead                                                       
00008489  NOROM_RFCRfTrimSet                                                        
00006435  NOROM_RFCSynthPowerDown                                                   
0000855d  NOROM_VIMSModeGet                                                         
00005029  OSCHF_AttemptToSwitchToXosc                                               
00003e6d  OSCHF_GetStartupTime                                                      
000069dd  OSCHF_SwitchToRcOscTurnOffXosc                                            
00008155  OSCHF_TurnOnXosc                                                          
00006471  OSC_HPOSCRelativeFrequencyOffsetGet                                       
10014c04  P1_ro                                                                     
10019ffe  P1_ro_2                                                                   
20004f40  P2_rw                                                                     
20004f40  P2_s0                                                                     
20004fac  P2_zi                                                                     
20002c8c  PIN_HandleTable                                                           
20002bf8  PIN_NumPins                                                               
00001e05  PIN_init                                                                  
00003c19  PIN_open                                                                  
00008769  PIN_registerIntCb                                                         
000072f1  PIN_setConfig                                                             
00005085  PowerCC26XX_RCOSC_clockFunc                                               
000044b9  PowerCC26XX_auxISR                                                        
00004915  PowerCC26XX_calibrate                                                     
00008c90  PowerCC26XX_config                                                        
00002169  PowerCC26XX_doCalibrate                                                   
00003e6d  PowerCC26XX_getXoscStartupTime                                            
00005251  PowerCC26XX_initiateCalibration                                           
00006a11  PowerCC26XX_isStableXOSC_HF                                               
200018b8  PowerCC26XX_module                                                        
00003425  PowerCC26XX_standbyPolicy                                                 
0000731d  PowerCC26XX_switchXOSC_HF                                                 
000086b5  Power_getConstraintMask                                                   
000086c1  Power_getDependencyCount                                                  
00007b93  Power_getTransitionLatency                                                
000086cd  Power_getTransitionState                                                  
00007d3d  Power_idleFunc                                                            
00002555  Power_init                                                                
00007605  Power_registerNotify                                                      
00006d95  Power_releaseConstraint                                                   
00003035  Power_releaseDependency                                                   
00006dc5  Power_setConstraint                                                       
00003109  Power_setDependency                                                       
00001425  Power_sleep                                                               
10017158  RCon                                                                      
10018415  RFHAL_AddTxDataEntry                                                      
100184f9  RFHAL_AllocDataEntry                                                      
100184a9  RFHAL_AllocDataEntryQueue                                                 
10018315  RFHAL_AllocRatChan                                                        
100185e1  RFHAL_BuildDataEntryRingBuffer                                            
10018669  RFHAL_BuildLinkedBuffer                                                   
10018551  RFHAL_BuildRingBuffer                                                     
10018549  RFHAL_FreeDataEntry                                                       
100184c5  RFHAL_FreeDataEntryQueue                                                  
10018485  RFHAL_FreeNextTxDataEntry                                                 
1001833d  RFHAL_FreeRatChan                                                         
100184cd  RFHAL_GetNextDataEntry                                                    
100184d1  RFHAL_GetTempDataEntry                                                    
100183b9  RFHAL_InitDataQueue                                                       
100182ad  RFHAL_InitRfHal                                                           
10018369  RFHAL_MapRatChansToInt                                                    
100184d5  RFHAL_NextDataEntryDone                                                   
100183c5  RFHAL_QueueRFDataEntries                                                  
10018391  RFHAL_RegisterRatChanCallback                                             
00008499  RF_Params_init                                                            
00001a45  RF_cancelCmd                                                              
000031d9  RF_close                                                                  
00008747  RF_flushCmd                                                               
00007d59  RF_getCmdOp                                                               
00004ded  RF_getCurrentTime                                                         
00005735  RF_getInfo                                                                
000061d1  RF_getRssi                                                                
000034e1  RF_open                                                                   
00003701  RF_pendCmd                                                                
00001fc9  RF_postCmd                                                                
00003861  RF_ratCapture                                                             
00004e4d  RF_ratCompare                                                             
000040f5  RF_ratDisableChannel                                                      
000077cd  RF_ratHwOutput                                                            
00005c39  RF_runCmd                                                                 
00007d75  RF_runDirectCmd                                                           
00008185  RF_runImmediateCmd                                                        
00004981  RF_yield                                                                  
000084a9  RegisterAssertCback                                                       
00005eb5  ResetISR                                                                  
10016b79  RoundKey_Sw                                                               
10015101  SAVEPOINT                                                                 
20004f68  SCAL                                                                      
100150e5  SCALARMUL                                                                 
10014ced  SCALARMUL_core                                                            
10015019  SCALARMUL_final                                                           
10014c05  SCALARMUL_init                                                            
10015a51  SETOPERAND                                                                
10015a91  SETWORD                                                                   
10018089  SHA256_final                                                              
10018129  SHA256_full                                                               
10017ffd  SHA256_init                                                               
10017ef1  SHA256_nextState                                                          
10018019  SHA256_process                                                            
10017e75  SHA256_round                                                              
10017f49  SHA256_saveBuffer                                                         
10017e39  SHA256_updateW                                                            
UNDEFED   SHT$$INIT_ARRAY$$Base                                                     
UNDEFED   SHT$$INIT_ARRAY$$Limit                                                    
10015821  SQUAREMULTIPLYWORD                                                        
10017895  SSP_CCM_Auth_Encrypt_Sw                                                   
10017365  SSP_CCM_Auth_Sw                                                           
1001767d  SSP_CCM_Decrypt_Sw                                                        
100174fd  SSP_CCM_Encrypt_Sw                                                        
100178f5  SSP_CCM_InvAuth_Decrypt_Sw                                                
10017839  SSP_CCM_InvAuth_Sw                                                        
10017771  SSP_CTR_Decrypt_Sw                                                        
100175ed  SSP_CTR_Encrypt_Sw                                                        
0000762d  SafeHapiVoid                                                              
10017164  Sbox                                                                      
00007655  ScanParam_AddService                                                      
000052fd  ScanParam_RefreshNotify                                                   
000084b9  ScanParam_Register                                                        
10015215  SelectReg                                                                 
10016c45  ShiftRows_Sw                                                              
0000856b  SignExtendVddrTrimValue                                                   
000050e1  SysCtrlAdjustRechargeAfterPowerDown                                       
0000164d  SysCtrlSetRechargeBeforePowerDown                                         
00004b29  SysCtrl_DCDC_VoltageConditionalControl                                    
20004f88  TMP1                                                                      
20004f8c  TMP2                                                                      
20004f90  TMP3                                                                      
20004f94  TMP4                                                                      
20004f98  TMP5                                                                      
20004f9c  TMP6                                                                      
00008381  ThisCodeIsBuiltForCC26xxHwRev22AndLater_HaltIfViolated                    
00005c81  Util_constructClock                                                       
00008579  Util_constructQueue                                                       
00007a95  Util_dequeueMsg                                                           
00007057  Util_enqueueMsg                                                           
000084c9  Util_isActive                                                             
0000667d  Util_restartClock                                                         
000087ef  Util_startClock                                                           
000087f3  Util_stopClock                                                            
10015a85  ZERO                                                                      
00000000  __ASM__                                                                   
20002ad8  __CIOBUF_                                                                 
00000071  __ISA__                                                                   
00000083  __PLAT__                                                                  
20004368  __STACK_END                                                               
00000400  __STACK_SIZE                                                              
20004368  __STACK_TOP                                                               
000000aa  __TARG__                                                                  
000096dc  __TI_CINIT_Base                                                           
00009744  __TI_CINIT_Limit                                                          
000096d4  __TI_Handler_Table_Base                                                   
000096dc  __TI_Handler_Table_Limit                                                  
00003901  __TI_auto_init                                                            
20001d8c  __TI_cleanup_ptr                                                          
00008587  __TI_decompress_none                                                      
00008775  __TI_decompress_rle24                                                     
20001d90  __TI_dtors_ptr                                                            
20001d94  __TI_enable_exit_profile_output                                           
ffffffff  __TI_pprof_out_hndl                                                       
ffffffff  __TI_prof_data_size                                                       
ffffffff  __TI_prof_data_start                                                      
00004c2b  __TI_readmsg                                                              
00008d70  __TI_static_base__                                                        
00004bf9  __TI_writemsg                                                             
000000cf  __TRDR__                                                                  
00004a57  __aeabi_idiv0                                                             
000081fd  __aeabi_lmul                                                              
00004269  __aeabi_memclr                                                            
00004269  __aeabi_memclr4                                                           
00004269  __aeabi_memclr8                                                           
00003ae1  __aeabi_memcpy                                                            
00003ae1  __aeabi_memcpy4                                                           
00003ae1  __aeabi_memcpy8                                                           
0000426b  __aeabi_memset                                                            
0000426b  __aeabi_memset4                                                           
0000426b  __aeabi_memset8                                                           
00006211  __aeabi_uidiv                                                             
00006211  __aeabi_uidivmod                                                          
00001851  __aeabi_uldivmod                                                          
ffffffff  __binit__                                                                 
ffffffff  __c_args__                                                                
0001ffa8  __ccfg                                                                    
10019ffe  __checksum_CommonROM                                                      
10014c00  __checksum_begin_CommonROM                                                
10019ffd  __checksum_end_CommonROM                                                  
0000e0ea  __checksum_value_CommonROM                                                
10018ced  __exit                                                                    
20003f68  __stack                                                                   
000081e5  _args_main                                                                
00005eb5  _c_int00                                                                  
20001dd0  _lock                                                                     
00008395  _nop                                                                      
0000839d  _register_lock                                                            
00008397  _register_unlock                                                          
20001dd4  _unlock                                                                   
000054f9  abort                                                                     
2000122c  appAssertCback                                                            
2000021c  appKeyChangeHandler                                                       
00008bdc  appearanceUUID                                                            
20004fdc  aux64                                                                     
00008cac  battCBs                                                                   
00008d1a  battLevelUUID                                                             
00008d3c  battServUUID                                                              
ffffffff  binit                                                                     
20000258  boardSemaphore                                                            
20000218  boardSemaphoreHandle                                                      
20000300  board_kb_buffer                                                           
00007ad5  bufferRead                                                                
0000819d  bufferWrite                                                               
20000208  buffer_write_pos                                                          
00008bd8  charAggFormatUUID                                                         
00008bd2  charExtPropsUUID                                                          
00008bc6  charFormatUUID                                                            
00008bd4  charUserDescUUID                                                          
00008bc2  characterUUID                                                             
00008bc4  clientCharCfgUUID                                                         
00005a39  copy_in                                                                   
00007349  createSemaphore                                                           
00005ef9  createTask                                                                
00008d3e  devInfo11073CertUUID                                                      
00008cb8  devInfoCBs                                                                
00008d40  devInfoFirmwareRevUUID                                                    
00008d42  devInfoHardwareRevUUID                                                    
00008d44  devInfoMfrNameUUID                                                        
00008d46  devInfoModelNumberUUID                                                    
00008d48  devInfoPnpIdUUID                                                          
00008d4a  devInfoSerialNumberUUID                                                   
00008d4c  devInfoServUUID                                                           
00008d4e  devInfoSoftwareRevUUID                                                    
00008d50  devInfoSystemIdUUID                                                       
00008bda  deviceNameUUID                                                            
20000f08  dispHandle                                                                
20002e04  driverlib_release_0_45566                                                 
10017dbd  eccRom_genKeys                                                            
10017ded  eccRom_genSharedSecret                                                    
20004fa0  eccRom_param_Gx                                                           
20004fa4  eccRom_param_Gy                                                           
20004f50  eccRom_param_a                                                            
20004fa8  eccRom_param_b                                                            
20004f48  eccRom_param_p                                                            
20004f4c  eccRom_param_r                                                            
20004f40  eccRom_windowSize                                                         
20004f44  eccRom_workzone                                                           
00005501  exit                                                                      
00008be8  extReportRefUUID                                                          
20004fcc  fwInfoCmd                                                                 
20000cac  gapRoleTask                                                               
20000cfc  gapRoleTaskStack                                                          
000081cd  gapRole_clockHandler                                                      
00008bca  gapServiceUUID                                                            
00008bcc  gattServiceUUID                                                           
20003f68  heapEnd                                                                   
20002e05  heapStart                                                                 
00008d52  hidBootKeyInputUUID                                                       
00008d54  hidBootKeyOutputUUID                                                      
00008d56  hidBootMouseInputUUID                                                     
00008d58  hidControlPointUUID                                                       
200008b0  hidDeviceTask                                                             
20000984  hidDeviceTaskStack                                                        
20000f58  hidEmuKbdTask                                                             
20000fa8  hidEmuKbdTaskStack                                                        
00008d5a  hidInfoUUID                                                               
00008cc4  hidKbdCBs                                                                 
200014a9  hidProtocolMode                                                           
00008d5c  hidProtocolModeUUID                                                       
200014a8  hidReportMapLen                                                           
00008d5e  hidReportMapUUID                                                          
00008d60  hidReportUUID                                                             
00008d62  hidServUUID                                                               
20004f58  inPointX                                                                  
20004f5c  inPointY                                                                  
20004f54  inScalar                                                                  
00008bd0  includeUUID                                                               
00007085  isModifier                                                                
2000024c  keyboardPins                                                              
20000240  keyboardPinsCfg                                                           
20000220  keyboardPinsHandler                                                       
200002b0  keyboardTask                                                              
20000274  keyboardTaskParams                                                        
20000580  keyboardTaskStack                                                         
000032a5  keyboardTx                                                                
20001d98  lastAppOpcodeSent                                                         
2000020e  latestLedState                                                            
20001d50  ledPin                                                                    
20001d40  ledPinHandler                                                             
20001d44  ledPinTable                                                               
20000b98  linkDBNumConns                                                            
00006725  linkDB_NumConns                                                           
10016551  mADD                                                                      
10015bd5  mINVK                                                                     
10015f81  mMULT                                                                     
10016749  mOUT                                                                      
10015a9d  mSET                                                                      
1001664d  mSUB                                                                      
0000675d  main                                                                      
20001be4  main_func_sp                                                              
10018949  mbCmdAckIsr                                                               
1001895d  mbCpe0Isr                                                                 
10018985  mbCpe1Isr                                                                 
100189e5  mbHwIsr                                                                   
00003ae1  memcpy                                                                    
00004271  memset                                                                    
00006a79  osal_snv_read                                                             
00006aad  osal_snv_write                                                            
20004f60  outPointX                                                                 
20004f64  outPointY                                                                 
20004ffc  pSspAesEncrypt_Sw                                                         
2000020d  pendingLedRequest                                                         
00008be2  periConnParamUUID                                                         
00008bde  periPrivacyFlagUUID                                                       
20001d9c  pfnBMAlloc                                                                
20001da0  pfnBMFree                                                                 
00008bc0  primaryServiceUUID                                                        
20000380  ps2ToUsbTable                                                             
20004fac  ratChanInfo                                                               
00008be0  reconnectAddrUUID                                                         
00008bc8  reportRefUUID                                                             
00007375  resetKeyboard                                                             
00008aa0  resourceDB                                                                
00008aec  rfDriverTable                                                             
20001b48  rfRegTbl                                                                  
0000364d  rxCompleteCallback                                                        
00005f81  rxRestoreClock                                                            
2000020f  rxTxBusy                                                                  
00008d64  scanIntervalWindowUUID                                                    
00008cd0  scanParamCBs                                                              
00008d66  scanParamRefreshUUID                                                      
00008d68  scanParamServUUID                                                         
00008bce  secondaryServiceUUID                                                      
20000804  selfEntity                                                                
00008bd6  servCharCfgUUID                                                           
00008be4  serviceChangedUUID                                                        
10016d29  sspAesDecrypt_Sw                                                          
10016af5  sspAesEncryptBasic_Sw                                                     
10016a99  sspAesEncryptKeyExp_Sw                                                    
10016979  sspAesEncrypt_Sw                                                          
10016985  sspKeyExpansion_Sw                                                        
10016975  ssp_KeyInit_Sw                                                            
000042e5  startTx                                                                   
00006b15  stopTx                                                                    
000083a9  strlen                                                                    
00004f0d  taskFxn                                                                   
200001a4  ti_sysbios_BIOS_Module__state__V                                          
1001bc29  ti_sysbios_BIOS_RtsGateProxy_Handle__label__S                             
UNDEFED   ti_sysbios_BIOS_RtsGateProxy_Handle__label__S__mangled__                  
1001bab9  ti_sysbios_BIOS_RtsGateProxy_Object__delete__S                            
UNDEFED   ti_sysbios_BIOS_RtsGateProxy_Object__delete__S__mangled__                 
1001c179  ti_sysbios_BIOS_RtsGateProxy_Params__init__S                              
UNDEFED   ti_sysbios_BIOS_RtsGateProxy_Params__init__S__mangled__                   
1001c249  ti_sysbios_BIOS_RtsGateProxy_enter__E                                     
1001c24d  ti_sysbios_BIOS_RtsGateProxy_leave__E                                     
1001c275  ti_sysbios_BIOS_RtsGateProxy_query__E                                     
UNDEFED   ti_sysbios_BIOS_RtsGateProxy_query__E__mangled__                          
00006e25  ti_sysbios_BIOS_atExitFunc__I                                             
000082b7  ti_sysbios_BIOS_exitFunc__I                                               
1001c035  ti_sysbios_BIOS_exit__E                                                   
1001bff9  ti_sysbios_BIOS_getCpuFreq__E                                             
000086e5  ti_sysbios_BIOS_getThreadType__E                                          
00005643  ti_sysbios_BIOS_nullFunc__I                                               
00007839  ti_sysbios_BIOS_registerRTSLock__I                                        
0000785d  ti_sysbios_BIOS_removeRTSLock__I                                          
00007af5  ti_sysbios_BIOS_rtsLock__I                                                
0000822d  ti_sysbios_BIOS_rtsUnlock__I                                              
1001c045  ti_sysbios_BIOS_setThreadType__E                                          
00007881  ti_sysbios_BIOS_startFunc__I                                              
1001c055  ti_sysbios_BIOS_start__E                                                  
00003a41  ti_sysbios_family_arm_cc26xx_Boot_trimDevice                              
00000502  ti_sysbios_family_arm_cc26xx_Timer_Module__id__C                          
1001bb49  ti_sysbios_family_arm_cc26xx_Timer_Module__startupDone__S                 
200001e4  ti_sysbios_family_arm_cc26xx_Timer_Module__state__V                       
1001ba71  ti_sysbios_family_arm_cc26xx_Timer_Module_startup__E                      
20001be8  ti_sysbios_family_arm_cc26xx_Timer_Object__table__V                       
00007de5  ti_sysbios_family_arm_cc26xx_Timer_dynamicStub__E                         
00008803  ti_sysbios_family_arm_cc26xx_Timer_getCount64__E                          
00006795  ti_sysbios_family_arm_cc26xx_Timer_getCurrentTick__E                      
1001c251  ti_sysbios_family_arm_cc26xx_Timer_getExpiredTicks__E                     
000076a5  ti_sysbios_family_arm_cc26xx_Timer_getMaxTicks__E                         
1001c255  ti_sysbios_family_arm_cc26xx_Timer_getPeriod__E                           
00006e55  ti_sysbios_family_arm_cc26xx_Timer_initDevice__I                          
1001a469  ti_sysbios_family_arm_cc26xx_Timer_periodicStub__E                        
1001b769  ti_sysbios_family_arm_cc26xx_Timer_postInit__I                            
00006c43  ti_sysbios_family_arm_cc26xx_Timer_setNextTick__E                         
1001c259  ti_sysbios_family_arm_cc26xx_Timer_setPeriod__E                           
00006e85  ti_sysbios_family_arm_cc26xx_Timer_setThreshold__I                        
00004d29  ti_sysbios_family_arm_cc26xx_Timer_start__E                               
00000484  ti_sysbios_family_arm_cc26xx_Timer_startupNeeded__C                       
1001b795  ti_sysbios_family_arm_cc26xx_Timer_startup__E                             
200001ec  ti_sysbios_family_arm_cc26xx_TimestampProvider_Module__state__V           
1001bb69  ti_sysbios_family_arm_cc26xx_TimestampProvider_Module_startup__E          
000085db  ti_sysbios_family_arm_cc26xx_TimestampProvider_get32__E                   
1001b9d1  ti_sysbios_family_arm_cc26xx_TimestampProvider_get64__E                   
1001c12f  ti_sysbios_family_arm_cc26xx_TimestampProvider_getFreq__E                 
00000504  ti_sysbios_family_arm_cc26xx_TimestampProvider_useClockTimer__C           
00000488  ti_sysbios_family_arm_m3_Hwi_E_alreadyDefined__C                          
0000048c  ti_sysbios_family_arm_m3_Hwi_E_hwiLimitExceeded__C                        
1001aed1  ti_sysbios_family_arm_m3_Hwi_Instance_finalize__E                         
1001a3c9  ti_sysbios_family_arm_m3_Hwi_Instance_init__E                             
20001e4e  ti_sysbios_family_arm_m3_Hwi_Module_State_0_excActive__A                  
20001e40  ti_sysbios_family_arm_m3_Hwi_Module_State_0_excContext__A                 
20001e44  ti_sysbios_family_arm_m3_Hwi_Module_State_0_excStack__A                   
00000506  ti_sysbios_family_arm_m3_Hwi_Module__id__C                                
20001de0  ti_sysbios_family_arm_m3_Hwi_Module__root__V                              
1001bb89  ti_sysbios_family_arm_m3_Hwi_Module__startupDone__S                       
20000144  ti_sysbios_family_arm_m3_Hwi_Module__state__V                             
1001b1c1  ti_sysbios_family_arm_m3_Hwi_Module_startup__E                            
00000490  ti_sysbios_family_arm_m3_Hwi_NUM_INTERRUPTS__C                            
000002d0  ti_sysbios_family_arm_m3_Hwi_Object__DESC__C                              
00000170  ti_sysbios_family_arm_m3_Hwi_Object__PARAMS__C                            
00000494  ti_sysbios_family_arm_m3_Hwi_Object__count__C                             
1001aab1  ti_sysbios_family_arm_m3_Hwi_Object__create__S                            
1001bba9  ti_sysbios_family_arm_m3_Hwi_Object__delete__S                            
1001be69  ti_sysbios_family_arm_m3_Hwi_Object__destruct__S                          
1001b7c1  ti_sysbios_family_arm_m3_Hwi_Object__get__S                               
00000498  ti_sysbios_family_arm_m3_Hwi_Object__table__C                             
20001d5c  ti_sysbios_family_arm_m3_Hwi_Object__table__V                             
1001c13d  ti_sysbios_family_arm_m3_Hwi_Params__init__S                              
0000049c  ti_sysbios_family_arm_m3_Hwi_ccr__C                                       
1001af29  ti_sysbios_family_arm_m3_Hwi_construct                                    
1001ab15  ti_sysbios_family_arm_m3_Hwi_create                                       
1001c25d  ti_sysbios_family_arm_m3_Hwi_delete                                       
1001c261  ti_sysbios_family_arm_m3_Hwi_destruct                                     
1001c149  ti_sysbios_family_arm_m3_Hwi_disableFxn__E                                
1001b299  ti_sysbios_family_arm_m3_Hwi_disableInterrupt__E                          
1001aa49  ti_sysbios_family_arm_m3_Hwi_dispatchC__I                                 
20002d08  ti_sysbios_family_arm_m3_Hwi_dispatchTable                                
1001c89d  ti_sysbios_family_arm_m3_Hwi_dispatch__I                                  
1001c1fb  ti_sysbios_family_arm_m3_Hwi_doSwiRestore__I                              
1001c213  ti_sysbios_family_arm_m3_Hwi_doTaskRestore__I                             
1001c155  ti_sysbios_family_arm_m3_Hwi_enableFxn__E                                 
1001b2dd  ti_sysbios_family_arm_m3_Hwi_enableInterrupt__E                           
1001ca01  ti_sysbios_family_arm_m3_Hwi_excHandlerAsm__I                             
000004a0  ti_sysbios_family_arm_m3_Hwi_excHandlerFunc__C                            
1001bbc9  ti_sysbios_family_arm_m3_Hwi_excHandler__I                                
1001b465  ti_sysbios_family_arm_m3_Hwi_getStackInfo__E                              
1001a699  ti_sysbios_family_arm_m3_Hwi_initNVIC__E                                  
1001c9b9  ti_sysbios_family_arm_m3_Hwi_initStacks__E                                
000004a4  ti_sysbios_family_arm_m3_Hwi_nullIsrFunc__C                               
000004a8  ti_sysbios_family_arm_m3_Hwi_numSparseInterrupts__C                       
e000e000  ti_sysbios_family_arm_m3_Hwi_nvic                                         
1001ca3f  ti_sysbios_family_arm_m3_Hwi_pendSV__I                                    
1001c065  ti_sysbios_family_arm_m3_Hwi_plug__E                                      
1001a319  ti_sysbios_family_arm_m3_Hwi_postInit__I                                  
000084d9  ti_sysbios_family_arm_m3_Hwi_post__E                                      
000004ac  ti_sysbios_family_arm_m3_Hwi_priGroup__C                                  
20000000  ti_sysbios_family_arm_m3_Hwi_ramVectors                                   
00000000  ti_sysbios_family_arm_m3_Hwi_resetVectors                                 
1001c219  ti_sysbios_family_arm_m3_Hwi_restoreFxn__E                                
1001ca57  ti_sysbios_family_arm_m3_Hwi_return                                       
000087d5  ti_sysbios_family_arm_m3_Hwi_setFunc__E                                   
1001be85  ti_sysbios_family_arm_m3_Hwi_setPriority__E                               
1001c203  ti_sysbios_family_arm_m3_Hwi_startup__E                                   
1001c00d  ti_sysbios_family_arm_m3_Hwi_switchFromBootStack__E                       
1001c265  ti_sysbios_family_arm_m3_TaskSupport_Module__startupDone__S               
1001c96d  ti_sysbios_family_arm_m3_TaskSupport_buildTaskStack                       
1001c161  ti_sysbios_family_arm_m3_TaskSupport_getStackAlignment__E                 
1001ca59  ti_sysbios_family_arm_m3_TaskSupport_glue                                 
000004b0  ti_sysbios_family_arm_m3_TaskSupport_stackAlignment__C                    
1001b49d  ti_sysbios_family_arm_m3_TaskSupport_start__E                             
1001ca69  ti_sysbios_family_arm_m3_TaskSupport_swap__E                              
1001ca21  ti_sysbios_family_xxx_Hwi_switchAndRunFunc                                
1001bbe9  ti_sysbios_gates_GateHwi_Handle__label__S                                 
1001b463  ti_sysbios_gates_GateHwi_Instance_init__E                                 
0000021c  ti_sysbios_gates_GateHwi_Module__FXNS__C                                  
00000508  ti_sysbios_gates_GateHwi_Module__id__C                                    
20001de8  ti_sysbios_gates_GateHwi_Module__root__V                                  
000002f0  ti_sysbios_gates_GateHwi_Object__DESC__C                                  
00000430  ti_sysbios_gates_GateHwi_Object__PARAMS__C                                
1001ba95  ti_sysbios_gates_GateHwi_Object__create__S                                
1001bc09  ti_sysbios_gates_GateHwi_Object__delete__S                                
1001c16d  ti_sysbios_gates_GateHwi_enter__E                                         
1001c21f  ti_sysbios_gates_GateHwi_leave__E                                         
1001c269  ti_sysbios_gates_GateHwi_query__E                                         
1001bc29  ti_sysbios_gates_GateMutex_Handle__label__S                               
000005cc  ti_sysbios_gates_GateMutex_Instance_State_sem__O                          
1001c075  ti_sysbios_gates_GateMutex_Instance_finalize__E                           
1001bea1  ti_sysbios_gates_GateMutex_Instance_init__E                               
00000240  ti_sysbios_gates_GateMutex_Module__FXNS__C                                
0000050a  ti_sysbios_gates_GateMutex_Module__id__C                                  
20001df0  ti_sysbios_gates_GateMutex_Module__root__V                                
00000310  ti_sysbios_gates_GateMutex_Object__DESC__C                                
00000448  ti_sysbios_gates_GateMutex_Object__PARAMS__C                              
1001b649  ti_sysbios_gates_GateMutex_Object__create__S                              
1001bab9  ti_sysbios_gates_GateMutex_Object__delete__S                              
1001bc49  ti_sysbios_gates_GateMutex_Object__destruct__S                            
20001c30  ti_sysbios_gates_GateMutex_Object__table__V                               
1001c179  ti_sysbios_gates_GateMutex_Params__init__S                                
1001b7ed  ti_sysbios_gates_GateMutex_construct                                      
1001b679  ti_sysbios_gates_GateMutex_create                                         
1001c26d  ti_sysbios_gates_GateMutex_delete                                         
1001c271  ti_sysbios_gates_GateMutex_destruct                                       
1001b6a9  ti_sysbios_gates_GateMutex_enter__E                                       
1001bf9d  ti_sysbios_gates_GateMutex_leave__E                                       
1001c275  ti_sysbios_gates_GateMutex_query__E                                       
1001c279  ti_sysbios_hal_Hwi_HwiProxy_Module__startupDone__S                        
UNDEFED   ti_sysbios_hal_Hwi_HwiProxy_Module__startupDone__S__mangled__             
1001c085  ti_sysbios_hal_Hwi_HwiProxy_Object__create__S                             
1001bba9  ti_sysbios_hal_Hwi_HwiProxy_Object__delete__S                             
UNDEFED   ti_sysbios_hal_Hwi_HwiProxy_Object__delete__S__mangled__                  
1001c13d  ti_sysbios_hal_Hwi_HwiProxy_Params__init__S                               
UNDEFED   ti_sysbios_hal_Hwi_HwiProxy_Params__init__S__mangled__                    
1001be49  ti_sysbios_hal_Hwi_HwiProxy_create                                        
1001c27d  ti_sysbios_hal_Hwi_HwiProxy_delete                                        
1001c281  ti_sysbios_hal_Hwi_HwiProxy_disableInterrupt__E                           
UNDEFED   ti_sysbios_hal_Hwi_HwiProxy_disableInterrupt__E__mangled__                
1001c285  ti_sysbios_hal_Hwi_HwiProxy_enableInterrupt__E                            
UNDEFED   ti_sysbios_hal_Hwi_HwiProxy_enableInterrupt__E__mangled__                 
1001c289  ti_sysbios_hal_Hwi_HwiProxy_getStackInfo__E                               
UNDEFED   ti_sysbios_hal_Hwi_HwiProxy_getStackInfo__E__mangled__                    
000084d9  ti_sysbios_hal_Hwi_HwiProxy_post__E                                       
1001c28d  ti_sysbios_hal_Hwi_HwiProxy_startup__E                                    
UNDEFED   ti_sysbios_hal_Hwi_HwiProxy_startup__E__mangled__                         
1001c291  ti_sysbios_hal_Hwi_HwiProxy_switchFromBootStack__E                        
UNDEFED   ti_sysbios_hal_Hwi_HwiProxy_switchFromBootStack__E__mangled__             
1001c1f1  ti_sysbios_hal_Hwi_Instance_finalize__E                                   
1001b9f9  ti_sysbios_hal_Hwi_Instance_init__E                                       
20001df8  ti_sysbios_hal_Hwi_Module__root__V                                        
1001c021  ti_sysbios_hal_Hwi_Module_startup__E                                      
00000330  ti_sysbios_hal_Hwi_Object__DESC__C                                        
000001a0  ti_sysbios_hal_Hwi_Object__PARAMS__C                                      
1001bc69  ti_sysbios_hal_Hwi_Object__delete__S                                      
000086f1  ti_sysbios_hal_Hwi_Params__init__S                                        
1001ab79  ti_sysbios_hal_Hwi_create                                                 
1001c295  ti_sysbios_hal_Hwi_delete                                                 
1001c281  ti_sysbios_hal_Hwi_disableInterrupt__E                                    
UNDEFED   ti_sysbios_hal_Hwi_disableInterrupt__E                                    
1001c285  ti_sysbios_hal_Hwi_enableInterrupt__E                                     
UNDEFED   ti_sysbios_hal_Hwi_enableInterrupt__E                                     
1001c289  ti_sysbios_hal_Hwi_getStackInfo__E                                        
UNDEFED   ti_sysbios_hal_Hwi_getStackInfo__E                                        
1001b819  ti_sysbios_hal_Hwi_initStack                                              
000084d9  ti_sysbios_hal_Hwi_post__E                                                
1001c28d  ti_sysbios_hal_Hwi_startup__E                                             
UNDEFED   ti_sysbios_hal_Hwi_startup__E                                             
1001c299  ti_sysbios_hal_Hwi_switchFromBootStack__E                                 
UNDEFED   ti_sysbios_hal_Hwi_switchFromBootStack__E                                 
000004b4  ti_sysbios_heaps_HeapMem_E_memory__C                                      
1001bc89  ti_sysbios_heaps_HeapMem_Handle__label__S                                 
20001e58  ti_sysbios_heaps_HeapMem_Instance_State_0_buf__A                          
1001b4d5  ti_sysbios_heaps_HeapMem_Instance_init__E                                 
1001bc29  ti_sysbios_heaps_HeapMem_Module_GateProxy_Handle__label__S                
UNDEFED   ti_sysbios_heaps_HeapMem_Module_GateProxy_Handle__label__S__mangled__     
1001bab9  ti_sysbios_heaps_HeapMem_Module_GateProxy_Object__delete__S               
UNDEFED   ti_sysbios_heaps_HeapMem_Module_GateProxy_Object__delete__S__mangled__    
1001c179  ti_sysbios_heaps_HeapMem_Module_GateProxy_Params__init__S                 
UNDEFED   ti_sysbios_heaps_HeapMem_Module_GateProxy_Params__init__S__mangled__      
1001c29d  ti_sysbios_heaps_HeapMem_Module_GateProxy_enter__E                        
1001c2a1  ti_sysbios_heaps_HeapMem_Module_GateProxy_leave__E                        
1001c275  ti_sysbios_heaps_HeapMem_Module_GateProxy_query__E                        
UNDEFED   ti_sysbios_heaps_HeapMem_Module_GateProxy_query__E__mangled__             
000001cc  ti_sysbios_heaps_HeapMem_Module__FXNS__C                                  
000004b8  ti_sysbios_heaps_HeapMem_Module__gateObj__C                               
0000050c  ti_sysbios_heaps_HeapMem_Module__id__C                                    
20001e00  ti_sysbios_heaps_HeapMem_Module__root__V                                  
00000350  ti_sysbios_heaps_HeapMem_Object__DESC__C                                  
00000264  ti_sysbios_heaps_HeapMem_Object__PARAMS__C                                
000004bc  ti_sysbios_heaps_HeapMem_Object__count__C                                 
1001b845  ti_sysbios_heaps_HeapMem_Object__create__S                                
1001bca9  ti_sysbios_heaps_HeapMem_Object__delete__S                                
1001b871  ti_sysbios_heaps_HeapMem_Object__get__S                                   
000004c0  ti_sysbios_heaps_HeapMem_Object__table__C                                 
20001d74  ti_sysbios_heaps_HeapMem_Object__table__V                                 
1001a199  ti_sysbios_heaps_HeapMem_alloc__E                                         
1001a795  ti_sysbios_heaps_HeapMem_free__E                                          
1001b209  ti_sysbios_heaps_HeapMem_getStats__E                                      
1001b545  ti_sysbios_heaps_HeapMem_init__I                                          
1001c2a5  ti_sysbios_heaps_HeapMem_isBlocking__E                                    
000004c4  ti_sysbios_heaps_HeapMem_reqAlign__C                                      
1001c105  ti_sysbios_heaps_HeapMem_restore__E                                       
1001bfcd  ti_sysbios_knl_Clock_Instance_finalize__E                                 
1001b50d  ti_sysbios_knl_Clock_Instance_init__E                                     
000005d0  ti_sysbios_knl_Clock_Module_State_clockQ__O                               
20001e08  ti_sysbios_knl_Clock_Module__root__V                                      
20000178  ti_sysbios_knl_Clock_Module__state__V                                     
1001bcc9  ti_sysbios_knl_Clock_Module_startup__E                                    
00000370  ti_sysbios_knl_Clock_Object__DESC__C                                      
00000288  ti_sysbios_knl_Clock_Object__PARAMS__C                                    
1001badd  ti_sysbios_knl_Clock_Object__delete__S                                    
1001bce9  ti_sysbios_knl_Clock_Object__destruct__S                                  
20001d20  ti_sysbios_knl_Clock_Object__table__V                                     
1001c185  ti_sysbios_knl_Clock_Params__init__S                                      
1001c2a9  ti_sysbios_knl_Clock_TimerProxy_Module__startupDone__S                    
UNDEFED   ti_sysbios_knl_Clock_TimerProxy_Module__startupDone__S__mangled__         
1001c095  ti_sysbios_knl_Clock_TimerProxy_getCurrentTick__E                         
1001c2ad  ti_sysbios_knl_Clock_TimerProxy_getExpiredTicks__E                        
1001c0a5  ti_sysbios_knl_Clock_TimerProxy_getMaxTicks__E                            
1001c2b1  ti_sysbios_knl_Clock_TimerProxy_getPeriod__E                              
1001c0b5  ti_sysbios_knl_Clock_TimerProxy_setNextTick__E                            
1001b795  ti_sysbios_knl_Clock_TimerProxy_startup__E                                
UNDEFED   ti_sysbios_knl_Clock_TimerProxy_startup__E__mangled__                     
1001ba21  ti_sysbios_knl_Clock_addI__E                                              
1001b579  ti_sysbios_knl_Clock_construct                                            
1001b3ed  ti_sysbios_knl_Clock_create                                               
1001c2b5  ti_sysbios_knl_Clock_delete                                               
1001c2b9  ti_sysbios_knl_Clock_destruct                                             
000083d1  ti_sysbios_knl_Clock_doTick__I                                            
000073a1  ti_sysbios_knl_Clock_getTicksUntilInterrupt__E                            
1001b6d9  ti_sysbios_knl_Clock_getTicks__E                                          
1001c191  ti_sysbios_knl_Clock_getTimerHandle__E                                    
00008807  ti_sysbios_knl_Clock_isActive__E                                          
1001be67  ti_sysbios_knl_Clock_logTick__E                                           
1001c2bd  ti_sysbios_knl_Clock_removeI__E                                           
1001bebd  ti_sysbios_knl_Clock_scheduleNextTick__E                                  
000004c8  ti_sysbios_knl_Clock_serviceMargin__C                                     
1001c2c1  ti_sysbios_knl_Clock_setTimeout__E                                        
1001a719  ti_sysbios_knl_Clock_startI__E                                            
1001bfe3  ti_sysbios_knl_Clock_start__E                                             
00007b15  ti_sysbios_knl_Clock_stop__E                                              
00000510  ti_sysbios_knl_Clock_tickMode__C                                          
00008d20  ti_sysbios_knl_Clock_tickPeriod__C                                        
00008d24  ti_sysbios_knl_Clock_triggerClock__C                                      
00005acf  ti_sysbios_knl_Clock_triggerFunc__I                                       
1001a80d  ti_sysbios_knl_Clock_walkQueueDynamic__E                                  
00003cb1  ti_sysbios_knl_Clock_workFuncDynamic__E                                   
1001a885  ti_sysbios_knl_Clock_workFunc__E                                          
00008d28  ti_sysbios_knl_Idle_funcList__A                                           
00000478  ti_sysbios_knl_Idle_funcList__C                                           
1001c20b  ti_sysbios_knl_Idle_loop__E                                               
1001bd09  ti_sysbios_knl_Idle_run__E                                                
000005d4  ti_sysbios_knl_Mailbox_Instance_State_dataQue__O                          
000005d8  ti_sysbios_knl_Mailbox_Instance_State_dataSem__O                          
000005dc  ti_sysbios_knl_Mailbox_Instance_State_freeQue__O                          
000005e0  ti_sysbios_knl_Mailbox_Instance_State_freeSem__O                          
1001a9dd  ti_sysbios_knl_Mailbox_Instance_finalize__E                               
1001a001  ti_sysbios_knl_Mailbox_Instance_init__E                                   
20001e10  ti_sysbios_knl_Mailbox_Module__root__V                                    
1001b251  ti_sysbios_knl_Mailbox_Module_startup__E                                  
00000390  ti_sysbios_knl_Mailbox_Object__DESC__C                                    
0000013c  ti_sysbios_knl_Mailbox_Object__PARAMS__C                                  
000004cc  ti_sysbios_knl_Mailbox_Object__count__C                                   
1001bd29  ti_sysbios_knl_Mailbox_Object__delete__S                                  
1001bed9  ti_sysbios_knl_Mailbox_Object__destruct__S                                
1001b89d  ti_sysbios_knl_Mailbox_Object__get__S                                     
000004d0  ti_sysbios_knl_Mailbox_Object__table__C                                   
1001c19d  ti_sysbios_knl_Mailbox_Params__init__S                                    
1001af81  ti_sysbios_knl_Mailbox_construct                                          
1001abdd  ti_sysbios_knl_Mailbox_create                                             
1001c2c5  ti_sysbios_knl_Mailbox_delete                                             
1001c2c9  ti_sysbios_knl_Mailbox_destruct                                           
1001a8fd  ti_sysbios_knl_Mailbox_pend__E                                            
1001b8c9  ti_sysbios_knl_Mailbox_postInit__I                                        
1001a591  ti_sysbios_knl_Mailbox_post__E                                            
1001c22b  ti_sysbios_knl_Queue_Instance_init__E                                     
20001e18  ti_sysbios_knl_Queue_Module__root__V                                      
000003b0  ti_sysbios_knl_Queue_Object__DESC__C                                      
00000460  ti_sysbios_knl_Queue_Object__PARAMS__C                                    
000004d4  ti_sysbios_knl_Queue_Object__count__C                                     
1001bd49  ti_sysbios_knl_Queue_Object__delete__S                                    
1001bef5  ti_sysbios_knl_Queue_Object__destruct__S                                  
1001bd69  ti_sysbios_knl_Queue_Object__get__S                                       
000004d8  ti_sysbios_knl_Queue_Object__table__C                                     
1001b8f5  ti_sysbios_knl_Queue_construct                                            
1001b921  ti_sysbios_knl_Queue_create                                               
1001c2cd  ti_sysbios_knl_Queue_delete                                               
1001c1a9  ti_sysbios_knl_Queue_dequeue__E                                           
1001c2d1  ti_sysbios_knl_Queue_destruct                                             
1001c231  ti_sysbios_knl_Queue_elemClear__E                                         
1001c113  ti_sysbios_knl_Queue_empty__E                                             
1001c1b5  ti_sysbios_knl_Queue_enqueue__E                                           
1001bf11  ti_sysbios_knl_Queue_get__E                                               
1001c2d5  ti_sysbios_knl_Queue_head__E                                              
1001c2d9  ti_sysbios_knl_Queue_next__E                                              
1001bf2d  ti_sysbios_knl_Queue_put__E                                               
1001c121  ti_sysbios_knl_Queue_remove__E                                            
000005e4  ti_sysbios_knl_Semaphore_Instance_State_pendQ__O                          
1001c0c5  ti_sysbios_knl_Semaphore_Instance_finalize__E                             
1001bb01  ti_sysbios_knl_Semaphore_Instance_init__E                                 
20001e20  ti_sysbios_knl_Semaphore_Module__root__V                                  
000003d0  ti_sysbios_knl_Semaphore_Object__DESC__C                                  
000002ac  ti_sysbios_knl_Semaphore_Object__PARAMS__C                                
1001bb25  ti_sysbios_knl_Semaphore_Object__delete__S                                
1001bd89  ti_sysbios_knl_Semaphore_Object__destruct__S                              
1001c1c1  ti_sysbios_knl_Semaphore_Params__init__S                                  
1001b709  ti_sysbios_knl_Semaphore_construct                                        
1001b5ad  ti_sysbios_knl_Semaphore_create                                           
1001c2dd  ti_sysbios_knl_Semaphore_delete                                           
1001c2e1  ti_sysbios_knl_Semaphore_destruct                                         
1001b94d  ti_sysbios_knl_Semaphore_pendTimeout__I                                   
1001a0cd  ti_sysbios_knl_Semaphore_pend__E                                          
1001ac41  ti_sysbios_knl_Semaphore_post__E                                          
1001bf9b  ti_sysbios_knl_Swi_Instance_finalize__E                                   
1001aca5  ti_sysbios_knl_Swi_Instance_init__E                                       
20001c68  ti_sysbios_knl_Swi_Module_State_0_readyQ__A                               
20001e28  ti_sysbios_knl_Swi_Module__root__V                                        
200001c8  ti_sysbios_knl_Swi_Module__state__V                                       
1001c237  ti_sysbios_knl_Swi_Module_startup__E                                      
000003f0  ti_sysbios_knl_Swi_Object__DESC__C                                        
000001f4  ti_sysbios_knl_Swi_Object__PARAMS__C                                      
000004dc  ti_sysbios_knl_Swi_Object__count__C                                       
1001bda9  ti_sysbios_knl_Swi_Object__delete__S                                      
1001bf49  ti_sysbios_knl_Swi_Object__destruct__S                                    
1001b979  ti_sysbios_knl_Swi_Object__get__S                                         
000004e0  ti_sysbios_knl_Swi_Object__table__C                                       
20001c98  ti_sysbios_knl_Swi_Object__table__V                                       
1001c1cd  ti_sysbios_knl_Swi_Params__init__S                                        
1001b085  ti_sysbios_knl_Swi_construct                                              
1001ad05  ti_sysbios_knl_Swi_create                                                 
1001c2e5  ti_sysbios_knl_Swi_delete                                                 
1001c2e9  ti_sysbios_knl_Swi_destruct                                               
1001c0d5  ti_sysbios_knl_Swi_disable__E                                             
1001c0e5  ti_sysbios_knl_Swi_enabled__E                                             
000086fd  ti_sysbios_knl_Swi_getTrigger__E                                          
000004e4  ti_sysbios_knl_Swi_numPriorities__C                                       
00008245  ti_sysbios_knl_Swi_or__E                                                  
1001c2ed  ti_sysbios_knl_Swi_postInit__I                                            
1001b321  ti_sysbios_knl_Swi_post__E                                                
1001ad61  ti_sysbios_knl_Swi_restoreHwi__E                                          
1001b5e1  ti_sysbios_knl_Swi_restore__E                                             
1001b0d5  ti_sysbios_knl_Swi_runLoop__I                                             
1001afd9  ti_sysbios_knl_Swi_run__I                                                 
1001b031  ti_sysbios_knl_Swi_schedule__I                                            
1001c23d  ti_sysbios_knl_Swi_startup__E                                             
200028d8  ti_sysbios_knl_Task_Instance_State_0_stack__A                             
1001a4fd  ti_sysbios_knl_Task_Instance_finalize__E                                  
1001a25d  ti_sysbios_knl_Task_Instance_init__E                                      
20001e48  ti_sysbios_knl_Task_Module_State_0_idleTask__A                            
20001cc8  ti_sysbios_knl_Task_Module_State_0_readyQ__A                              
000005e8  ti_sysbios_knl_Task_Module_State_inactiveQ__O                             
20001e30  ti_sysbios_knl_Task_Module__root__V                                       
20000100  ti_sysbios_knl_Task_Module__state__V                                      
1001adbd  ti_sysbios_knl_Task_Module_startup__E                                     
00000410  ti_sysbios_knl_Task_Object__DESC__C                                       
00000100  ti_sysbios_knl_Task_Object__PARAMS__C                                     
000004e8  ti_sysbios_knl_Task_Object__count__C                                      
1001bdc9  ti_sysbios_knl_Task_Object__delete__S                                     
1001bf65  ti_sysbios_knl_Task_Object__destruct__S                                   
1001bde9  ti_sysbios_knl_Task_Object__get__S                                        
000004ec  ti_sysbios_knl_Task_Object__table__C                                      
20001b98  ti_sysbios_knl_Task_Object__table__V                                      
1001c1d9  ti_sysbios_knl_Task_Params__init__S                                       
1001c2f1  ti_sysbios_knl_Task_SupportProxy_Module__startupDone__S                   
UNDEFED   ti_sysbios_knl_Task_SupportProxy_Module__startupDone__S__mangled__        
1001c2f5  ti_sysbios_knl_Task_SupportProxy_getStackAlignment__E                     
UNDEFED   ti_sysbios_knl_Task_SupportProxy_getStackAlignment__E__mangled__          
1001c2f9  ti_sysbios_knl_Task_SupportProxy_start__E                                 
UNDEFED   ti_sysbios_knl_Task_SupportProxy_start__E__mangled__                      
1001c2fd  ti_sysbios_knl_Task_SupportProxy_swap__E                                  
UNDEFED   ti_sysbios_knl_Task_SupportProxy_swap__E__mangled__                       
000004f0  ti_sysbios_knl_Task_allBlockedFunc__C                                     
1001b365  ti_sysbios_knl_Task_allBlockedFunction__I                                 
1001b615  ti_sysbios_knl_Task_blockI__E                                             
1001b125  ti_sysbios_knl_Task_construct                                             
1001ae19  ti_sysbios_knl_Task_create                                                
000004f4  ti_sysbios_knl_Task_defaultStackHeap__C                                   
000004f8  ti_sysbios_knl_Task_defaultStackSize__C                                   
1001c301  ti_sysbios_knl_Task_delete                                                
1001c305  ti_sysbios_knl_Task_destruct                                              
1001c0f5  ti_sysbios_knl_Task_disable__E                                            
1001c243  ti_sysbios_knl_Task_enable__E                                             
1001be09  ti_sysbios_knl_Task_enter__I                                              
1001b429  ti_sysbios_knl_Task_exit__E                                               
0000050e  ti_sysbios_knl_Task_initStackFlag__C                                      
000004fc  ti_sysbios_knl_Task_numConstructedTasks__C                                
1001a615  ti_sysbios_knl_Task_postInit__I                                           
1001b739  ti_sysbios_knl_Task_processVitalTaskFlag__I                               
1001be29  ti_sysbios_knl_Task_restoreHwi__E                                         
1001ba49  ti_sysbios_knl_Task_restore__E                                            
1001b175  ti_sysbios_knl_Task_schedule__I                                           
1001c1e5  ti_sysbios_knl_Task_self__E                                               
1001bf81  ti_sysbios_knl_Task_sleepTimeout__I                                       
1001a96d  ti_sysbios_knl_Task_sleep__E                                              
1001ae75  ti_sysbios_knl_Task_startCore__E                                          
1001c309  ti_sysbios_knl_Task_startup__E                                            
1001ca71  ti_sysbios_knl_Task_swapReturn                                            
1001b9a5  ti_sysbios_knl_Task_unblockI__E                                           
1001bfb5  ti_sysbios_knl_Task_unblock__E                                            
1001b3a9  ti_sysbios_knl_Task_yield__E                                              
00000590  ti_sysbios_rom_ROM_AONRTCChannelEnable                                    
00000594  ti_sysbios_rom_ROM_AONRTCCompareValueSet                                  
00000598  ti_sysbios_rom_ROM_AONRTCCurrentCompareValueGet                           
0000059c  ti_sysbios_rom_ROM_AONRTCEventClear                                       
000005a0  ti_sysbios_rom_ROM_ti_sysbios_family_arm_cc26xx_Timer_getCount64__E       
000005a4  ti_sysbios_rom_ROM_ti_sysbios_family_arm_cc26xx_Timer_getCurrentTick__E   
000005a8  ti_sysbios_rom_ROM_ti_sysbios_family_arm_cc26xx_Timer_getMaxTicks__E      
000005ac  ti_sysbios_rom_ROM_ti_sysbios_family_arm_cc26xx_Timer_initDevice__I       
000005b0  ti_sysbios_rom_ROM_ti_sysbios_family_arm_cc26xx_Timer_setNextTick__E      
000005b4  ti_sysbios_rom_ROM_ti_sysbios_family_arm_cc26xx_Timer_setThreshold__I     
000005b8  ti_sysbios_rom_ROM_ti_sysbios_family_arm_cc26xx_Timer_start__E            
000005bc  ti_sysbios_rom_ROM_ti_sysbios_family_arm_cc26xx_TimestampProvider_get32__E
000005c0  ti_sysbios_rom_ROM_xdc_runtime_Startup_getState__I                        
000005c4  ti_sysbios_rom_ROM_xdc_runtime_System_SupportProxy_abort__E               
000005c8  ti_sysbios_rom_ROM_xdc_runtime_System_SupportProxy_exit__E                
00005de7  ti_sysbios_rom_cortexm_cc26xx_CC26xx_badRomRevision__E                    
0000825d  ti_sysbios_rom_cortexm_cc26xx_CC26xx_checkRevision__E                     
1001ca9b  ti_sysbios_rom_cortexm_cc26xx_CC26xx_getRevision__E                       
00003a41  trimDevice                                                                
00008c40  txPowerTable                                                              
00008d10  txPwrTbl                                                                  
2000020b  txRequestEvent                                                            
2000020a  txRequestPending                                                          
2000020c  txRequestResponse                                                         
20000209  tx_byte                                                                   
000078a5  usbToPS2LedState                                                          
20001cf8  user0Cfg                                                                  
00008be6  validRangeUUID                                                            
00000524  xdc_runtime_Assert_E_assertFailed__C                                      
1001c5a9  xdc_runtime_Assert_raise__I                                               
1001c6ed  xdc_runtime_Core_assignLabel__I                                           
1001c5f1  xdc_runtime_Core_assignParams__I                                          
1001c639  xdc_runtime_Core_constructObject__I                                       
1001c405  xdc_runtime_Core_createObject__I                                          
1001c4f9  xdc_runtime_Core_deleteObject__I                                          
1001c7a1  xdc_runtime_Core_destructObject__I                                        
00000528  xdc_runtime_Error_E_memory__C                                             
1001c7b9  xdc_runtime_Error_check__E                                                
1001c841  xdc_runtime_Error_init__E                                                 
0000052c  xdc_runtime_Error_policyFxn__C                                            
1001c487  xdc_runtime_Error_policySpin__E                                           
0000058c  xdc_runtime_Error_policy__C                                               
1001c769  xdc_runtime_Error_raiseX__E                                               
1001c885  xdc_runtime_Gate_enterSystem__E                                           
1001c879  xdc_runtime_Gate_leaveSystem__E                                           
00000530  xdc_runtime_IGateProvider_Interface__BASE__C                              
00000534  xdc_runtime_IHeap_Interface__BASE__C                                      
00000538  xdc_runtime_IModule_Interface__BASE__C                                    
UNDEFED   xdc_runtime_Main_Module_GateProxy_Handle__label__S                        
UNDEFED   xdc_runtime_Main_Module_GateProxy_Object__delete__S                       
UNDEFED   xdc_runtime_Main_Module_GateProxy_query__E                                
0000053c  xdc_runtime_Main_Module__diagsEnabled__C                                  
00000540  xdc_runtime_Main_Module__diagsIncluded__C                                 
00000544  xdc_runtime_Main_Module__diagsMask__C                                     
00000584  xdc_runtime_Main_Module__id__C                                            
1001bc89  xdc_runtime_Memory_HeapProxy_Handle__label__S                             
UNDEFED   xdc_runtime_Memory_HeapProxy_Handle__label__S__mangled__                  
1001bca9  xdc_runtime_Memory_HeapProxy_Object__delete__S                            
UNDEFED   xdc_runtime_Memory_HeapProxy_Object__delete__S__mangled__                 
1001c889  xdc_runtime_Memory_HeapProxy_alloc__E                                     
1001c88d  xdc_runtime_Memory_HeapProxy_free__E                                      
00000586  xdc_runtime_Memory_Module__id__C                                          
20000200  xdc_runtime_Memory_Module__state__V                                       
1001c489  xdc_runtime_Memory_alloc__E                                               
1001c84d  xdc_runtime_Memory_calloc__E                                              
00000548  xdc_runtime_Memory_defaultHeapInstance__C                                 
1001c801  xdc_runtime_Memory_free__E                                                
1001c859  xdc_runtime_Memory_getMaxDefaultTypeAlign__E                              
1001c785  xdc_runtime_Memory_valloc__E                                              
20001e38  xdc_runtime_Registry_Module__state__V                                     
00007b35  xdc_runtime_Registry_findById__E                                          
200001f0  xdc_runtime_Startup_Module__state__V                                      
00000001  xdc_runtime_Startup__EXECFXN__C                                           
00000001  xdc_runtime_Startup__RESETFXN__C                                          
0000054c  xdc_runtime_Startup_execImpl__C                                           
1001c559  xdc_runtime_Startup_exec__E                                               
000083e5  xdc_runtime_Startup_exec__I                                               
00008cdc  xdc_runtime_Startup_firstFxns__A                                          
00000514  xdc_runtime_Startup_firstFxns__C                                          
00005199  xdc_runtime_Startup_getState__I                                           
0000051c  xdc_runtime_Startup_lastFxns__C                                           
00000550  xdc_runtime_Startup_maxPasses__C                                          
00008709  xdc_runtime_Startup_reset__I                                              
00008c7c  xdc_runtime_Startup_sfxnRts__A                                            
00000554  xdc_runtime_Startup_sfxnRts__C                                            
00008c18  xdc_runtime_Startup_sfxnTab__A                                            
00000558  xdc_runtime_Startup_sfxnTab__C                                            
0000055c  xdc_runtime_Startup_startModsFxn__C                                       
1001c30d  xdc_runtime_Startup_startMods__I                                          
00000560  xdc_runtime_SysCallback_abortFxn__C                                       
1001c811  xdc_runtime_SysCallback_abort__E                                          
0000683b  xdc_runtime_SysCallback_defaultAbort                                      
0000744b  xdc_runtime_SysCallback_defaultExit                                       
00000564  xdc_runtime_SysCallback_exitFxn__C                                        
1001c821  xdc_runtime_SysCallback_exit__E                                           
200024d8  xdc_runtime_SysMin_Module_State_0_outbuf__A                               
20001db0  xdc_runtime_SysMin_Module__state__V                                       
00007b55  xdc_runtime_SysMin_Module_startup__E                                      
00006eb5  xdc_runtime_SysMin_abort__E                                               
00008d2c  xdc_runtime_SysMin_bufSize__C                                             
00007e01  xdc_runtime_SysMin_exit__E                                                
00008d6a  xdc_runtime_SysMin_flushAtExit__C                                         
00005fc5  xdc_runtime_SysMin_flush__E                                               
00008d30  xdc_runtime_SysMin_outputFunc__C                                          
00007931  xdc_runtime_SysMin_output__I                                              
000067cd  xdc_runtime_SysMin_putch__E                                               
000084e9  xdc_runtime_SysMin_ready__E                                               
1001bbe9  xdc_runtime_System_Module_GateProxy_Handle__label__S                      
UNDEFED   xdc_runtime_System_Module_GateProxy_Handle__label__S__mangled__           
1001bc09  xdc_runtime_System_Module_GateProxy_Object__delete__S                     
UNDEFED   xdc_runtime_System_Module_GateProxy_Object__delete__S__mangled__          
1001c891  xdc_runtime_System_Module_GateProxy_enter__E                              
1001c895  xdc_runtime_System_Module_GateProxy_leave__E                              
1001c269  xdc_runtime_System_Module_GateProxy_query__E                              
UNDEFED   xdc_runtime_System_Module_GateProxy_query__E__mangled__                   
200001f8  xdc_runtime_System_Module__state__V                                       
1001c87f  xdc_runtime_System_Module_startup__E                                      
00006eb5  xdc_runtime_System_SupportProxy_abort__E                                  
00007e01  xdc_runtime_System_SupportProxy_exit__E                                   
00005fc5  xdc_runtime_System_SupportProxy_flush__E                                  
000067cd  xdc_runtime_System_SupportProxy_putch__E                                  
000084e9  xdc_runtime_System_SupportProxy_ready__E                                  
00000568  xdc_runtime_System_abortFxn__C                                            
1001c899  xdc_runtime_System_abortSpin__E                                           
000054f9  xdc_runtime_System_abortStd__E                                            
1001c749  xdc_runtime_System_abort__E                                               
1001c681  xdc_runtime_System_atexit__E                                              
000009c1  xdc_runtime_System_doPrint__I                                             
0000056c  xdc_runtime_System_exitFxn__C                                             
1001c89b  xdc_runtime_System_exitSpin__E                                            
00005501  xdc_runtime_System_exitStd__E                                             
1001c7d1  xdc_runtime_System_exit__E                                                
00008d34  xdc_runtime_System_extendFxn__C                                           
000046f5  xdc_runtime_System_formatNum__I                                           
00000570  xdc_runtime_System_maxAtexitHandlers__C                                   
00002c91  xdc_runtime_System_printfExtend__I                                        
00007e6b  xdc_runtime_System_printf__E                                              
0000880b  xdc_runtime_System_printf_va__F                                           
1001c6b9  xdc_runtime_System_processAtExit__E                                       
00007421  xdc_runtime_System_putchar__I                                             
000078c9  xdc_runtime_System_vprintf__E                                             
000084f9  xdc_runtime_System_vsnprintf__E                                           
00000588  xdc_runtime_Text_charCnt__C                                               
00008bbf  xdc_runtime_Text_charTab__A                                               
00000574  xdc_runtime_Text_charTab__C                                               
1001c71d  xdc_runtime_Text_cordText__E                                              
0000058a  xdc_runtime_Text_isLoaded__C                                              
00000578  xdc_runtime_Text_nameEmpty__C                                             
0000057c  xdc_runtime_Text_nameStatic__C                                            
00000580  xdc_runtime_Text_nameUnknown__C                                           
00006ee5  xdc_runtime_Text_printVisFxn__I                                           
000051f5  xdc_runtime_Text_putLab__E                                                
00003d49  xdc_runtime_Text_putMod__E                                                
00003b7d  xdc_runtime_Text_putSite__E                                               
00008d6c  xdc_runtime_Text_registryModsLastId__C                                    
1001c7e9  xdc_runtime_Text_ropeText__E                                              
00008d6e  xdc_runtime_Text_unnamedModsLastId__C                                     
00008d38  xdc_runtime_Text_visitRopeFxn__C                                          
0000874f  xdc_runtime_Text_visitRope__I                                             
00006009  xdc_runtime_Text_xprintf__I                                               
1001c831  xdc_runtime_Timestamp_SupportProxy_get32__E                               
000085db  xdc_runtime_Timestamp_SupportProxy_get32__E__mangled__                    
1001b9d1  xdc_runtime_Timestamp_SupportProxy_get64__E                               
UNDEFED   xdc_runtime_Timestamp_SupportProxy_get64__E__mangled__                    
1001c12f  xdc_runtime_Timestamp_SupportProxy_getFreq__E                             
UNDEFED   xdc_runtime_Timestamp_SupportProxy_getFreq__E__mangled__                  
1001c831  xdc_runtime_Timestamp_get32__E                                            
UNDEFED   xdc_runtime_Timestamp_get32__E                                            
1001b9d1  xdc_runtime_Timestamp_get64__E                                            
UNDEFED   xdc_runtime_Timestamp_get64__E                                            
1001c12f  xdc_runtime_Timestamp_getFreq__E                                          
UNDEFED   xdc_runtime_Timestamp_getFreq__E                                          
10015d19  zADD                                                                      
10015eb5  zADD32                                                                    
10015de9  zMACC32                                                                   
10015f0d  zMULT32                                                                   
10015bcd  zSET                                                                      
10015d5d  zSUB                                                                      
10015e69  zSUB32                                                                    


GLOBAL SYMBOLS: SORTED BY Symbol Address 

address   name                                                                      
-------   ----                                                                      
00000000  __ASM__                                                                   
00000000  ti_sysbios_family_arm_m3_Hwi_resetVectors                                 
00000001  xdc_runtime_Startup__EXECFXN__C                                           
00000001  xdc_runtime_Startup__RESETFXN__C                                          
00000071  __ISA__                                                                   
00000083  __PLAT__                                                                  
000000aa  __TARG__                                                                  
000000cf  __TRDR__                                                                  
000000fd  GATTServApp_AddService                                                    
00000100  ti_sysbios_knl_Task_Object__PARAMS__C                                     
0000013c  ti_sysbios_knl_Mailbox_Object__PARAMS__C                                  
00000170  ti_sysbios_family_arm_m3_Hwi_Object__PARAMS__C                            
000001a0  ti_sysbios_hal_Hwi_Object__PARAMS__C                                      
000001cc  ti_sysbios_heaps_HeapMem_Module__FXNS__C                                  
000001f4  ti_sysbios_knl_Swi_Object__PARAMS__C                                      
0000021c  ti_sysbios_gates_GateHwi_Module__FXNS__C                                  
00000240  ti_sysbios_gates_GateMutex_Module__FXNS__C                                
00000264  ti_sysbios_heaps_HeapMem_Object__PARAMS__C                                
00000288  ti_sysbios_knl_Clock_Object__PARAMS__C                                    
000002ac  ti_sysbios_knl_Semaphore_Object__PARAMS__C                                
000002d0  ti_sysbios_family_arm_m3_Hwi_Object__DESC__C                              
000002f0  ti_sysbios_gates_GateHwi_Object__DESC__C                                  
00000310  ti_sysbios_gates_GateMutex_Object__DESC__C                                
00000330  ti_sysbios_hal_Hwi_Object__DESC__C                                        
00000350  ti_sysbios_heaps_HeapMem_Object__DESC__C                                  
00000370  ti_sysbios_knl_Clock_Object__DESC__C                                      
00000390  ti_sysbios_knl_Mailbox_Object__DESC__C                                    
000003b0  ti_sysbios_knl_Queue_Object__DESC__C                                      
000003d0  ti_sysbios_knl_Semaphore_Object__DESC__C                                  
000003f0  ti_sysbios_knl_Swi_Object__DESC__C                                        
00000400  __STACK_SIZE                                                              
00000410  ti_sysbios_knl_Task_Object__DESC__C                                       
00000430  ti_sysbios_gates_GateHwi_Object__PARAMS__C                                
00000448  ti_sysbios_gates_GateMutex_Object__PARAMS__C                              
00000460  ti_sysbios_knl_Queue_Object__PARAMS__C                                    
00000478  ti_sysbios_knl_Idle_funcList__C                                           
00000484  ti_sysbios_family_arm_cc26xx_Timer_startupNeeded__C                       
00000488  ti_sysbios_family_arm_m3_Hwi_E_alreadyDefined__C                          
0000048c  ti_sysbios_family_arm_m3_Hwi_E_hwiLimitExceeded__C                        
00000490  ti_sysbios_family_arm_m3_Hwi_NUM_INTERRUPTS__C                            
00000494  ti_sysbios_family_arm_m3_Hwi_Object__count__C                             
00000498  ti_sysbios_family_arm_m3_Hwi_Object__table__C                             
0000049c  ti_sysbios_family_arm_m3_Hwi_ccr__C                                       
000004a0  ti_sysbios_family_arm_m3_Hwi_excHandlerFunc__C                            
000004a4  ti_sysbios_family_arm_m3_Hwi_nullIsrFunc__C                               
000004a8  ti_sysbios_family_arm_m3_Hwi_numSparseInterrupts__C                       
000004ac  ti_sysbios_family_arm_m3_Hwi_priGroup__C                                  
000004b0  ti_sysbios_family_arm_m3_TaskSupport_stackAlignment__C                    
000004b4  ti_sysbios_heaps_HeapMem_E_memory__C                                      
000004b8  ti_sysbios_heaps_HeapMem_Module__gateObj__C                               
000004bc  ti_sysbios_heaps_HeapMem_Object__count__C                                 
000004c0  ti_sysbios_heaps_HeapMem_Object__table__C                                 
000004c4  ti_sysbios_heaps_HeapMem_reqAlign__C                                      
000004c8  ti_sysbios_knl_Clock_serviceMargin__C                                     
000004cc  ti_sysbios_knl_Mailbox_Object__count__C                                   
000004d0  ti_sysbios_knl_Mailbox_Object__table__C                                   
000004d4  ti_sysbios_knl_Queue_Object__count__C                                     
000004d8  ti_sysbios_knl_Queue_Object__table__C                                     
000004dc  ti_sysbios_knl_Swi_Object__count__C                                       
000004e0  ti_sysbios_knl_Swi_Object__table__C                                       
000004e4  ti_sysbios_knl_Swi_numPriorities__C                                       
000004e8  ti_sysbios_knl_Task_Object__count__C                                      
000004ec  ti_sysbios_knl_Task_Object__table__C                                      
000004f0  ti_sysbios_knl_Task_allBlockedFunc__C                                     
000004f4  ti_sysbios_knl_Task_defaultStackHeap__C                                   
000004f8  ti_sysbios_knl_Task_defaultStackSize__C                                   
000004fc  ti_sysbios_knl_Task_numConstructedTasks__C                                
00000501  DefaultAssertCback                                                        
00000502  ti_sysbios_family_arm_cc26xx_Timer_Module__id__C                          
00000504  ti_sysbios_family_arm_cc26xx_TimestampProvider_useClockTimer__C           
00000506  ti_sysbios_family_arm_m3_Hwi_Module__id__C                                
00000508  ti_sysbios_gates_GateHwi_Module__id__C                                    
0000050a  ti_sysbios_gates_GateMutex_Module__id__C                                  
0000050c  ti_sysbios_heaps_HeapMem_Module__id__C                                    
0000050e  ti_sysbios_knl_Task_initStackFlag__C                                      
00000510  ti_sysbios_knl_Clock_tickMode__C                                          
00000514  xdc_runtime_Startup_firstFxns__C                                          
0000051c  xdc_runtime_Startup_lastFxns__C                                           
00000524  xdc_runtime_Assert_E_assertFailed__C                                      
00000528  xdc_runtime_Error_E_memory__C                                             
0000052c  xdc_runtime_Error_policyFxn__C                                            
00000530  xdc_runtime_IGateProvider_Interface__BASE__C                              
00000534  xdc_runtime_IHeap_Interface__BASE__C                                      
00000538  xdc_runtime_IModule_Interface__BASE__C                                    
0000053c  xdc_runtime_Main_Module__diagsEnabled__C                                  
00000540  xdc_runtime_Main_Module__diagsIncluded__C                                 
00000544  xdc_runtime_Main_Module__diagsMask__C                                     
00000548  xdc_runtime_Memory_defaultHeapInstance__C                                 
0000054c  xdc_runtime_Startup_execImpl__C                                           
00000550  xdc_runtime_Startup_maxPasses__C                                          
00000554  xdc_runtime_Startup_sfxnRts__C                                            
00000558  xdc_runtime_Startup_sfxnTab__C                                            
0000055c  xdc_runtime_Startup_startModsFxn__C                                       
00000560  xdc_runtime_SysCallback_abortFxn__C                                       
00000564  xdc_runtime_SysCallback_exitFxn__C                                        
00000568  xdc_runtime_System_abortFxn__C                                            
0000056c  xdc_runtime_System_exitFxn__C                                             
00000570  xdc_runtime_System_maxAtexitHandlers__C                                   
00000574  xdc_runtime_Text_charTab__C                                               
00000578  xdc_runtime_Text_nameEmpty__C                                             
0000057c  xdc_runtime_Text_nameStatic__C                                            
00000580  xdc_runtime_Text_nameUnknown__C                                           
00000584  xdc_runtime_Main_Module__id__C                                            
00000586  xdc_runtime_Memory_Module__id__C                                          
00000588  xdc_runtime_Text_charCnt__C                                               
0000058a  xdc_runtime_Text_isLoaded__C                                              
0000058c  xdc_runtime_Error_policy__C                                               
00000590  ti_sysbios_rom_ROM_AONRTCChannelEnable                                    
00000594  ti_sysbios_rom_ROM_AONRTCCompareValueSet                                  
00000598  ti_sysbios_rom_ROM_AONRTCCurrentCompareValueGet                           
0000059c  ti_sysbios_rom_ROM_AONRTCEventClear                                       
000005a0  ti_sysbios_rom_ROM_ti_sysbios_family_arm_cc26xx_Timer_getCount64__E       
000005a4  ti_sysbios_rom_ROM_ti_sysbios_family_arm_cc26xx_Timer_getCurrentTick__E   
000005a8  ti_sysbios_rom_ROM_ti_sysbios_family_arm_cc26xx_Timer_getMaxTicks__E      
000005ac  ti_sysbios_rom_ROM_ti_sysbios_family_arm_cc26xx_Timer_initDevice__I       
000005b0  ti_sysbios_rom_ROM_ti_sysbios_family_arm_cc26xx_Timer_setNextTick__E      
000005b4  ti_sysbios_rom_ROM_ti_sysbios_family_arm_cc26xx_Timer_setThreshold__I     
000005b8  ti_sysbios_rom_ROM_ti_sysbios_family_arm_cc26xx_Timer_start__E            
000005bc  ti_sysbios_rom_ROM_ti_sysbios_family_arm_cc26xx_TimestampProvider_get32__E
000005c0  ti_sysbios_rom_ROM_xdc_runtime_Startup_getState__I                        
000005c4  ti_sysbios_rom_ROM_xdc_runtime_System_SupportProxy_abort__E               
000005c8  ti_sysbios_rom_ROM_xdc_runtime_System_SupportProxy_exit__E                
000005cc  ti_sysbios_gates_GateMutex_Instance_State_sem__O                          
000005d0  ti_sysbios_knl_Clock_Module_State_clockQ__O                               
000005d4  ti_sysbios_knl_Mailbox_Instance_State_dataQue__O                          
000005d8  ti_sysbios_knl_Mailbox_Instance_State_dataSem__O                          
000005dc  ti_sysbios_knl_Mailbox_Instance_State_freeQue__O                          
000005e0  ti_sysbios_knl_Mailbox_Instance_State_freeSem__O                          
000005e4  ti_sysbios_knl_Semaphore_Instance_State_pendQ__O                          
000005e8  ti_sysbios_knl_Task_Module_State_inactiveQ__O                             
000009c1  xdc_runtime_System_doPrint__I                                             
00000fad  GAPRole_SetParameter                                                      
00001425  Power_sleep                                                               
0000164d  SysCtrlSetRechargeBeforePowerDown                                         
00001851  __aeabi_uldivmod                                                          
00001a45  RF_cancelCmd                                                              
00001e05  PIN_init                                                                  
00001fc9  RF_postCmd                                                                
00002169  PowerCC26XX_doCalibrate                                                   
00002555  Power_init                                                                
0000266d  HidDev_WriteAttrCB                                                        
00002781  HidKbd_AddService                                                         
00002c91  xdc_runtime_System_printfExtend__I                                        
00002e75  HidDev_ReadAttrCB                                                         
00003035  Power_releaseDependency                                                   
00003109  Power_setDependency                                                       
000031d9  RF_close                                                                  
000032a5  keyboardTx                                                                
00003425  PowerCC26XX_standbyPolicy                                                 
000034e1  RF_open                                                                   
0000364d  rxCompleteCallback                                                        
00003701  RF_pendCmd                                                                
00003861  RF_ratCapture                                                             
00003901  __TI_auto_init                                                            
00003a41  ti_sysbios_family_arm_cc26xx_Boot_trimDevice                              
00003a41  trimDevice                                                                
00003ae1  __aeabi_memcpy                                                            
00003ae1  __aeabi_memcpy4                                                           
00003ae1  __aeabi_memcpy8                                                           
00003ae1  memcpy                                                                    
00003b7d  xdc_runtime_Text_putSite__E                                               
00003c19  PIN_open                                                                  
00003cb1  ti_sysbios_knl_Clock_workFuncDynamic__E                                   
00003d49  xdc_runtime_Text_putMod__E                                                
00003e6d  OSCHF_GetStartupTime                                                      
00003e6d  PowerCC26XX_getXoscStartupTime                                            
00003ef5  ICall_heapMalloc                                                          
000040f5  RF_ratDisableChannel                                                      
00004269  __aeabi_memclr                                                            
00004269  __aeabi_memclr4                                                           
00004269  __aeabi_memclr8                                                           
0000426b  __aeabi_memset                                                            
0000426b  __aeabi_memset4                                                           
0000426b  __aeabi_memset8                                                           
00004271  memset                                                                    
000042e5  startTx                                                                   
000043d1  ICallPlatform_pwrUpdActivityCounter                                       
000044b9  PowerCC26XX_auxISR                                                        
00004615  ChipInfo_GetHwRevision                                                    
000046f5  xdc_runtime_System_formatNum__I                                           
0000483d  ICall_createRemoteTasks                                                   
000048a9  ICall_heapInit                                                            
00004915  PowerCC26XX_calibrate                                                     
00004981  RF_yield                                                                  
00004a57  __aeabi_idiv0                                                             
00004b29  SysCtrl_DCDC_VoltageConditionalControl                                    
00004bf9  __TI_writemsg                                                             
00004c27  C$$IO$$                                                                   
00004c2b  __TI_readmsg                                                              
00004d29  ti_sysbios_family_arm_cc26xx_Timer_start__E                               
00004ded  RF_getCurrentTime                                                         
00004e4d  RF_ratCompare                                                             
00004f0d  taskFxn                                                                   
00005029  OSCHF_AttemptToSwitchToXosc                                               
00005085  PowerCC26XX_RCOSC_clockFunc                                               
000050e1  SysCtrlAdjustRechargeAfterPowerDown                                       
00005199  xdc_runtime_Startup_getState__I                                           
000051f5  xdc_runtime_Text_putLab__E                                                
00005251  PowerCC26XX_initiateCalibration                                           
000052a9  GAPBondMgr_GetParameter                                                   
000052fd  ScanParam_RefreshNotify                                                   
000054f5  C$$EXIT                                                                   
000054f9  abort                                                                     
000054f9  xdc_runtime_System_abortStd__E                                            
00005501  exit                                                                      
00005501  xdc_runtime_System_exitStd__E                                             
00005549  HOSTwrite                                                                 
00005643  ti_sysbios_BIOS_nullFunc__I                                               
00005645  GAP_DeviceInit                                                            
00005695  GAP_UpdateAdvertisingData                                                 
00005735  RF_getInfo                                                                
00005825  HidKbd_SetParameter                                                       
00005909  NOROM_OSCClockSourceSet                                                   
00005a39  copy_in                                                                   
00005a85  GATTServApp_ProcessCCCWriteReq                                            
00005acf  ti_sysbios_knl_Clock_triggerFunc__I                                       
00005ad1  ChipInfo_GetChipFamily                                                    
00005bf1  NOROM_DDI16BitfieldWrite                                                  
00005c39  RF_runCmd                                                                 
00005c81  Util_constructClock                                                       
00005de7  ti_sysbios_rom_cortexm_cc26xx_CC26xx_badRomRevision__E                    
00005de9  AssertHandler                                                             
00005e2d  GAP_TerminateLinkReq                                                      
00005eb5  ResetISR                                                                  
00005eb5  _c_int00                                                                  
00005ef9  createTask                                                                
00005f81  rxRestoreClock                                                            
00005fc5  xdc_runtime_SysMin_flush__E                                               
00005fc5  xdc_runtime_System_SupportProxy_flush__E                                  
00006009  xdc_runtime_Text_xprintf__I                                               
000060d1  Batt_GetParameter                                                         
00006111  GAPRole_SendUpdateParam                                                   
00006151  GAPRole_createTask                                                        
00006191  NOROM_DDI16BitfieldRead                                                   
000061d1  RF_getRssi                                                                
00006211  __aeabi_uidiv                                                             
00006211  __aeabi_uidivmod                                                          
000062cd  GAP_GetParamValue                                                         
00006309  GATTServApp_RegisterService                                               
00006345  HidDev_Report                                                             
00006381  HidDev_createTask                                                         
000063bd  HidEmuKbd_createTask                                                      
000063f9  ICallPlatform_pwrConfigACAction                                           
00006435  NOROM_RFCSynthPowerDown                                                   
00006471  OSC_HPOSCRelativeFrequencyOffsetGet                                       
0000659d  GAPBondMgr_LinkEst                                                        
0000660d  HidKbd_GetParameter                                                       
0000667d  Util_restartClock                                                         
00006725  linkDB_NumConns                                                           
0000675d  main                                                                      
00006795  ti_sysbios_family_arm_cc26xx_Timer_getCurrentTick__E                      
000067cd  xdc_runtime_SysMin_putch__E                                               
000067cd  xdc_runtime_System_SupportProxy_putch__E                                  
0000683b  xdc_runtime_SysCallback_defaultAbort                                      
0000683d  GAPBondMgr_SetParameter                                                   
00006871  GAP_SetParamValue                                                         
00006975  ICall_searchServiceEntity                                                 
000069a9  Keyboard_init                                                             
000069dd  OSCHF_SwitchToRcOscTurnOffXosc                                            
00006a11  PowerCC26XX_isStableXOSC_HF                                               
00006a79  osal_snv_read                                                             
00006aad  osal_snv_write                                                            
00006b15  stopTx                                                                    
00006c43  ti_sysbios_family_arm_cc26xx_Timer_setNextTick__E                         
00006c75  GAPBondMgr_PasscodeRsp                                                    
00006d05  ICallPlatform_pwrRegisterNotify                                           
00006d95  Power_releaseConstraint                                                   
00006dc5  Power_setConstraint                                                       
00006e25  ti_sysbios_BIOS_atExitFunc__I                                             
00006e55  ti_sysbios_family_arm_cc26xx_Timer_initDevice__I                          
00006e85  ti_sysbios_family_arm_cc26xx_Timer_setThreshold__I                        
00006eb5  xdc_runtime_SysMin_abort__E                                               
00006eb5  xdc_runtime_System_SupportProxy_abort__E                                  
00006ee5  xdc_runtime_Text_printVisFxn__I                                           
00007057  Util_enqueueMsg                                                           
00007085  isModifier                                                                
0000710d  HidDev_Register                                                           
00007191  ICall_freeImpl                                                            
00007191  ICall_heapFree                                                            
000072f1  PIN_setConfig                                                             
0000731d  PowerCC26XX_switchXOSC_HF                                                 
00007349  createSemaphore                                                           
00007375  resetKeyboard                                                             
000073a1  ti_sysbios_knl_Clock_getTicksUntilInterrupt__E                            
00007421  xdc_runtime_System_putchar__I                                             
0000744b  xdc_runtime_SysCallback_defaultExit                                       
0000744d  AONBatMonTemperatureGetDegC                                               
00007475  Batt_AddService                                                           
0000749d  GAPBondMgr_Register                                                       
000074c5  GATTServApp_WriteCharCfg                                                  
0000753d  ICall_init                                                                
00007605  Power_registerNotify                                                      
0000762d  SafeHapiVoid                                                              
00007655  ScanParam_AddService                                                      
000076a5  ti_sysbios_family_arm_cc26xx_Timer_getMaxTicks__E                         
000076cd  List_put                                                                  
000076f3  GAPBondMgr_LinkTerm                                                       
000077cd  RF_ratHwOutput                                                            
00007839  ti_sysbios_BIOS_registerRTSLock__I                                        
0000785d  ti_sysbios_BIOS_removeRTSLock__I                                          
00007881  ti_sysbios_BIOS_startFunc__I                                              
000078a5  usbToPS2LedState                                                          
000078c9  xdc_runtime_System_vprintf__E                                             
00007931  xdc_runtime_SysMin_output__I                                              
00007955  GATTServApp_InitCharCfg                                                   
00007a55  NOROM_RFCDoorbellSendTo                                                   
00007a75  NOROM_RFCRfTrimRead                                                       
00007a95  Util_dequeueMsg                                                           
00007ad5  bufferRead                                                                
00007af5  ti_sysbios_BIOS_rtsLock__I                                                
00007b15  ti_sysbios_knl_Clock_stop__E                                              
00007b35  xdc_runtime_Registry_findById__E                                          
00007b55  xdc_runtime_SysMin_Module_startup__E                                      
00007b93  Power_getTransitionLatency                                                
00007bd1  Batt_MeasLevel                                                            
00007bed  GATT_bm_alloc                                                             
00007c09  GATT_bm_free                                                              
00007ce9  NOROM_OSCClockSourceGet                                                   
00007d3d  Power_idleFunc                                                            
00007d59  RF_getCmdOp                                                               
00007d75  RF_runDirectCmd                                                           
00007de5  ti_sysbios_family_arm_cc26xx_Timer_dynamicStub__E                         
00007e01  xdc_runtime_SysMin_exit__E                                                
00007e01  xdc_runtime_System_SupportProxy_exit__E                                   
00007e1d  ICall_enterCSImpl                                                         
00007e6b  xdc_runtime_System_printf__E                                              
00007e85  Batt_SetParameter                                                         
00007e9d  ChipInfo_GetPackageType                                                   
00007eb5  GAPRole_StartDevice                                                       
00007ecd  GAPRole_TerminateConnection                                               
00007ee5  GATT_Notification                                                         
00007fa5  HidDev_StartIdleTimer                                                     
00007fbd  HidDev_StopIdleTimer                                                      
00007fed  ICallPlatform_pwrDispense                                                 
00008005  ICallPlatform_pwrRequire                                                  
0000810d  LED_init                                                                  
00008125  NOROM_AONRTCCurrentCompareValueGet                                        
0000813d  NOROM_RFCCpeIntGetAndClear                                                
00008155  OSCHF_TurnOnXosc                                                          
00008185  RF_runImmediateCmd                                                        
0000819d  bufferWrite                                                               
000081cd  gapRole_clockHandler                                                      
000081e5  _args_main                                                                
000081fd  __aeabi_lmul                                                              
0000822d  ti_sysbios_BIOS_rtsUnlock__I                                              
00008245  ti_sysbios_knl_Swi_or__E                                                  
0000825d  ti_sysbios_rom_cortexm_cc26xx_CC26xx_checkRevision__E                     
0000828b  ICall_leaveCSImpl                                                         
000082b7  ti_sysbios_BIOS_exitFunc__I                                               
000082cd  Batt_Register                                                             
000082e1  DevInfo_AddService                                                        
000082f5  GAPRole_GetParameter                                                      
00008309  HidDev_RegisterReports                                                    
0000831d  HidDev_StartAdvertising                                                   
00008359  LED_changeState                                                           
0000836d  NOROM_AONRTCCurrent64BitValueGet                                          
00008381  ThisCodeIsBuiltForCC26xxHwRev22AndLater_HaltIfViolated                    
00008395  _nop                                                                      
00008397  _register_unlock                                                          
0000839d  _register_lock                                                            
000083a9  strlen                                                                    
000083d1  ti_sysbios_knl_Clock_doTick__I                                            
000083e5  xdc_runtime_Startup_exec__I                                               
00008409  GAP_EndDiscoverable                                                       
00008419  GATTServApp_ReadCharCfg                                                   
00008449  ICallPlatform_pwrGetXOSCStartupTime                                       
00008479  Keyboard_changeLedState                                                   
00008489  NOROM_RFCRfTrimSet                                                        
00008499  RF_Params_init                                                            
000084a9  RegisterAssertCback                                                       
000084b9  ScanParam_Register                                                        
000084c9  Util_isActive                                                             
000084d9  ti_sysbios_family_arm_m3_Hwi_post__E                                      
000084d9  ti_sysbios_hal_Hwi_HwiProxy_post__E                                       
000084d9  ti_sysbios_hal_Hwi_post__E                                                
000084e9  xdc_runtime_SysMin_ready__E                                               
000084e9  xdc_runtime_System_SupportProxy_ready__E                                  
000084f9  xdc_runtime_System_vsnprintf__E                                           
00008509  ICallPlatform_pwrGetTransitionState                                       
00008517  ICallPlatform_pwrIsStableXOSCHF                                           
0000855d  NOROM_VIMSModeGet                                                         
0000856b  SignExtendVddrTrimValue                                                   
00008579  Util_constructQueue                                                       
00008587  __TI_decompress_none                                                      
000085db  ti_sysbios_family_arm_cc26xx_TimestampProvider_get32__E                   
000085db  xdc_runtime_Timestamp_SupportProxy_get32__E__mangled__                    
000085f5  GAP_MakeDiscoverable                                                      
00008601  GAP_TerminateAuth                                                         
0000860d  GAP_UpdateLinkParamReq                                                    
00008619  GGS_SetParameter                                                          
00008625  HidDev_StartDevice                                                        
0000869d  NOROM_CPUcpsid                                                            
000086a9  NOROM_CPUcpsie                                                            
000086b5  Power_getConstraintMask                                                   
000086c1  Power_getDependencyCount                                                  
000086cd  Power_getTransitionState                                                  
000086e5  ti_sysbios_BIOS_getThreadType__E                                          
000086f1  ti_sysbios_hal_Hwi_Params__init__S                                        
000086fd  ti_sysbios_knl_Swi_getTrigger__E                                          
00008709  xdc_runtime_Startup_reset__I                                              
00008729  ICallPlatform_pwrSwitchXOSCHF                                             
0000873d  List_empty                                                                
00008747  RF_flushCmd                                                               
0000874f  xdc_runtime_Text_visitRope__I                                             
00008757  GGS_AddService                                                            
0000875d  ICall_mallocImpl                                                          
00008763  NOROM_CPUdelay                                                            
00008769  PIN_registerIntCb                                                         
00008775  __TI_decompress_rle24                                                     
000087d5  ti_sysbios_family_arm_m3_Hwi_setFunc__E                                   
000087db  HwiP_disable                                                              
000087e3  List_head                                                                 
000087e7  List_next                                                                 
000087ef  Util_startClock                                                           
000087f3  Util_stopClock                                                            
00008803  ti_sysbios_family_arm_cc26xx_Timer_getCount64__E                          
00008807  ti_sysbios_knl_Clock_isActive__E                                          
0000880b  xdc_runtime_System_printf_va__F                                           
00008aa0  resourceDB                                                                
00008aec  rfDriverTable                                                             
00008bbf  xdc_runtime_Text_charTab__A                                               
00008bc0  primaryServiceUUID                                                        
00008bc2  characterUUID                                                             
00008bc4  clientCharCfgUUID                                                         
00008bc6  charFormatUUID                                                            
00008bc8  reportRefUUID                                                             
00008bca  gapServiceUUID                                                            
00008bcc  gattServiceUUID                                                           
00008bce  secondaryServiceUUID                                                      
00008bd0  includeUUID                                                               
00008bd2  charExtPropsUUID                                                          
00008bd4  charUserDescUUID                                                          
00008bd6  servCharCfgUUID                                                           
00008bd8  charAggFormatUUID                                                         
00008bda  deviceNameUUID                                                            
00008bdc  appearanceUUID                                                            
00008bde  periPrivacyFlagUUID                                                       
00008be0  reconnectAddrUUID                                                         
00008be2  periConnParamUUID                                                         
00008be4  serviceChangedUUID                                                        
00008be6  validRangeUUID                                                            
00008be8  extReportRefUUID                                                          
00008bec  BoardGpioInitTable                                                        
00008c18  xdc_runtime_Startup_sfxnTab__A                                            
00008c40  txPowerTable                                                              
00008c7c  xdc_runtime_Startup_sfxnRts__A                                            
00008c90  PowerCC26XX_config                                                        
00008cac  battCBs                                                                   
00008cb8  devInfoCBs                                                                
00008cc4  hidKbdCBs                                                                 
00008cd0  scanParamCBs                                                              
00008cdc  xdc_runtime_Startup_firstFxns__A                                          
00008d10  txPwrTbl                                                                  
00008d1a  battLevelUUID                                                             
00008d20  ti_sysbios_knl_Clock_tickPeriod__C                                        
00008d24  ti_sysbios_knl_Clock_triggerClock__C                                      
00008d28  ti_sysbios_knl_Idle_funcList__A                                           
00008d2c  xdc_runtime_SysMin_bufSize__C                                             
00008d30  xdc_runtime_SysMin_outputFunc__C                                          
00008d34  xdc_runtime_System_extendFxn__C                                           
00008d38  xdc_runtime_Text_visitRopeFxn__C                                          
00008d3c  battServUUID                                                              
00008d3e  devInfo11073CertUUID                                                      
00008d40  devInfoFirmwareRevUUID                                                    
00008d42  devInfoHardwareRevUUID                                                    
00008d44  devInfoMfrNameUUID                                                        
00008d46  devInfoModelNumberUUID                                                    
00008d48  devInfoPnpIdUUID                                                          
00008d4a  devInfoSerialNumberUUID                                                   
00008d4c  devInfoServUUID                                                           
00008d4e  devInfoSoftwareRevUUID                                                    
00008d50  devInfoSystemIdUUID                                                       
00008d52  hidBootKeyInputUUID                                                       
00008d54  hidBootKeyOutputUUID                                                      
00008d56  hidBootMouseInputUUID                                                     
00008d58  hidControlPointUUID                                                       
00008d5a  hidInfoUUID                                                               
00008d5c  hidProtocolModeUUID                                                       
00008d5e  hidReportMapUUID                                                          
00008d60  hidReportUUID                                                             
00008d62  hidServUUID                                                               
00008d64  scanIntervalWindowUUID                                                    
00008d66  scanParamRefreshUUID                                                      
00008d68  scanParamServUUID                                                         
00008d6a  xdc_runtime_SysMin_flushAtExit__C                                         
00008d6c  xdc_runtime_Text_registryModsLastId__C                                    
00008d6e  xdc_runtime_Text_unnamedModsLastId__C                                     
00008d70  __TI_static_base__                                                        
000096d4  __TI_Handler_Table_Base                                                   
000096dc  __TI_CINIT_Base                                                           
000096dc  __TI_Handler_Table_Limit                                                  
00009744  __TI_CINIT_Limit                                                          
0000e0ea  __checksum_value_CommonROM                                                
0001ffa8  __ccfg                                                                    
10014c00  A1_rw                                                                     
10014c00  __checksum_begin_CommonROM                                                
10014c01  COMMON_ROM_BASE_ADDR                                                      
10014c04  P1_ro                                                                     
10014c05  SCALARMUL_init                                                            
10014ced  SCALARMUL_core                                                            
10015019  SCALARMUL_final                                                           
100150e5  SCALARMUL                                                                 
10015101  SAVEPOINT                                                                 
10015141  GETBIT                                                                    
10015155  GETDIGIT                                                                  
100151a5  GETDIGITL2R                                                               
10015215  SelectReg                                                                 
10015229  ATOMICPATTERN                                                             
100154f5  JACADD                                                                    
1001568d  INVERT                                                                    
10015821  SQUAREMULTIPLYWORD                                                        
1001588c  LUTOPCODE                                                                 
10015894  LUTOPSIGN                                                                 
100158ac  LUTC                                                                      
100158c4  LUTSE                                                                     
100158dc  LUTINCI                                                                   
100158f4  LUTJ                                                                      
1001596c  LUTSTATE                                                                  
100159a9  IMPORTLENGTH                                                              
100159ad  IMPORTMODULUS                                                             
100159d1  IMPORTOPERAND                                                             
10015a11  EXPORTOPERAND                                                             
10015a35  IMPORTDATA                                                                
10015a51  SETOPERAND                                                                
10015a6d  COPY                                                                      
10015a85  ZERO                                                                      
10015a91  SETWORD                                                                   
10015a9d  mSET                                                                      
10015bcd  zSET                                                                      
10015bd5  mINVK                                                                     
10015d19  zADD                                                                      
10015d5d  zSUB                                                                      
10015de9  zMACC32                                                                   
10015e69  zSUB32                                                                    
10015eb5  zADD32                                                                    
10015f0d  zMULT32                                                                   
10015f81  mMULT                                                                     
10016551  mADD                                                                      
1001664d  mSUB                                                                      
10016749  mOUT                                                                      
10016975  ssp_KeyInit_Sw                                                            
10016979  sspAesEncrypt_Sw                                                          
10016985  sspKeyExpansion_Sw                                                        
10016a99  sspAesEncryptKeyExp_Sw                                                    
10016af5  sspAesEncryptBasic_Sw                                                     
10016b79  RoundKey_Sw                                                               
10016c29  AddRoundKeySubBytes_Sw                                                    
10016c45  ShiftRows_Sw                                                              
10016c79  MixColumns_Sw                                                             
10016d05  FFMult_Sw                                                                 
10016d29  sspAesDecrypt_Sw                                                          
10016da1  InvAddRoundKey_Sw                                                         
10016dc9  InvRoundKey_Sw                                                            
10016e8d  InvSubBytes_Sw                                                            
10016ea1  InvShiftRows_Sw                                                           
10016ed5  InvMixColumns_Sw                                                          
10016f58  FFMult2                                                                   
10017058  FFMult3                                                                   
10017158  RCon                                                                      
10017164  Sbox                                                                      
10017264  InvSbox                                                                   
10017365  SSP_CCM_Auth_Sw                                                           
100174fd  SSP_CCM_Encrypt_Sw                                                        
100175ed  SSP_CTR_Encrypt_Sw                                                        
1001767d  SSP_CCM_Decrypt_Sw                                                        
10017771  SSP_CTR_Decrypt_Sw                                                        
10017839  SSP_CCM_InvAuth_Sw                                                        
10017895  SSP_CCM_Auth_Encrypt_Sw                                                   
100178f5  SSP_CCM_InvAuth_Decrypt_Sw                                                
10017959  ECC_allocWorkzone                                                         
10017961  ECC_setWin                                                                
10017969  ECDSA_sign                                                                
10017b01  ECDSA_verif                                                               
10017dbd  eccRom_genKeys                                                            
10017ded  eccRom_genSharedSecret                                                    
10017e39  SHA256_updateW                                                            
10017e75  SHA256_round                                                              
10017ef1  SHA256_nextState                                                          
10017f49  SHA256_saveBuffer                                                         
10017ffd  SHA256_init                                                               
10018019  SHA256_process                                                            
10018089  SHA256_final                                                              
10018129  SHA256_full                                                               
100182ad  RFHAL_InitRfHal                                                           
10018315  RFHAL_AllocRatChan                                                        
1001833d  RFHAL_FreeRatChan                                                         
10018369  RFHAL_MapRatChansToInt                                                    
10018391  RFHAL_RegisterRatChanCallback                                             
100183b9  RFHAL_InitDataQueue                                                       
100183c5  RFHAL_QueueRFDataEntries                                                  
10018415  RFHAL_AddTxDataEntry                                                      
10018485  RFHAL_FreeNextTxDataEntry                                                 
100184a9  RFHAL_AllocDataEntryQueue                                                 
100184c5  RFHAL_FreeDataEntryQueue                                                  
100184cd  RFHAL_GetNextDataEntry                                                    
100184d1  RFHAL_GetTempDataEntry                                                    
100184d5  RFHAL_NextDataEntryDone                                                   
100184f9  RFHAL_AllocDataEntry                                                      
10018549  RFHAL_FreeDataEntry                                                       
10018551  RFHAL_BuildRingBuffer                                                     
100185e1  RFHAL_BuildDataEntryRingBuffer                                            
10018669  RFHAL_BuildLinkedBuffer                                                   
10018755  MB_Init                                                                   
10018799  MB_EnableInts                                                             
100187f5  MB_DisableInts                                                            
10018825  MB_ClearInts                                                              
10018835  MB_EnableHWInts                                                           
10018865  MB_SendCommand                                                            
100188a5  MB_SendCommandSynch                                                       
10018935  MB_ReadMailboxStatus                                                      
1001893d  MB_RegisterIsrCback                                                       
10018945  MB_FwDebugDump                                                            
10018949  mbCmdAckIsr                                                               
1001895d  mbCpe0Isr                                                                 
10018985  mbCpe1Isr                                                                 
100189e5  mbHwIsr                                                                   
10018a19  AesCcm_authEncrypt_Sw                                                     
10018a35  AesCcm_decryptAuth_Sw                                                     
10018a99  Aes_encrypt_Sw                                                            
10018ac5  Aes_decrypt_Sw                                                            
10018b09  AesCcm_getNumBlocks_Sw                                                    
10018b0c  NIST_Curve_P256_p                                                         
10018b30  NIST_Curve_P256_r                                                         
10018b54  NIST_Curve_P256_a                                                         
10018b78  NIST_Curve_P256_b                                                         
10018b9c  NIST_Curve_P256_Gx                                                        
10018bc0  NIST_Curve_P256_Gy                                                        
10018ced  __exit                                                                    
10018d6c  Fill1                                                                     
10019ffc  A3_rw                                                                     
10019ffd  __checksum_end_CommonROM                                                  
10019ffe  A2_rw                                                                     
10019ffe  P1_ro_2                                                                   
10019ffe  __checksum_CommonROM                                                      
1001a001  ti_sysbios_knl_Mailbox_Instance_init__E                                   
1001a0cd  ti_sysbios_knl_Semaphore_pend__E                                          
1001a199  ti_sysbios_heaps_HeapMem_alloc__E                                         
1001a25d  ti_sysbios_knl_Task_Instance_init__E                                      
1001a319  ti_sysbios_family_arm_m3_Hwi_postInit__I                                  
1001a3c9  ti_sysbios_family_arm_m3_Hwi_Instance_init__E                             
1001a469  ti_sysbios_family_arm_cc26xx_Timer_periodicStub__E                        
1001a4fd  ti_sysbios_knl_Task_Instance_finalize__E                                  
1001a591  ti_sysbios_knl_Mailbox_post__E                                            
1001a615  ti_sysbios_knl_Task_postInit__I                                           
1001a699  ti_sysbios_family_arm_m3_Hwi_initNVIC__E                                  
1001a719  ti_sysbios_knl_Clock_startI__E                                            
1001a795  ti_sysbios_heaps_HeapMem_free__E                                          
1001a80d  ti_sysbios_knl_Clock_walkQueueDynamic__E                                  
1001a885  ti_sysbios_knl_Clock_workFunc__E                                          
1001a8fd  ti_sysbios_knl_Mailbox_pend__E                                            
1001a96d  ti_sysbios_knl_Task_sleep__E                                              
1001a9dd  ti_sysbios_knl_Mailbox_Instance_finalize__E                               
1001aa49  ti_sysbios_family_arm_m3_Hwi_dispatchC__I                                 
1001aab1  ti_sysbios_family_arm_m3_Hwi_Object__create__S                            
1001ab15  ti_sysbios_family_arm_m3_Hwi_create                                       
1001ab79  ti_sysbios_hal_Hwi_create                                                 
1001abdd  ti_sysbios_knl_Mailbox_create                                             
1001ac41  ti_sysbios_knl_Semaphore_post__E                                          
1001aca5  ti_sysbios_knl_Swi_Instance_init__E                                       
1001ad05  ti_sysbios_knl_Swi_create                                                 
1001ad61  ti_sysbios_knl_Swi_restoreHwi__E                                          
1001adbd  ti_sysbios_knl_Task_Module_startup__E                                     
1001ae19  ti_sysbios_knl_Task_create                                                
1001ae75  ti_sysbios_knl_Task_startCore__E                                          
1001aed1  ti_sysbios_family_arm_m3_Hwi_Instance_finalize__E                         
1001af29  ti_sysbios_family_arm_m3_Hwi_construct                                    
1001af81  ti_sysbios_knl_Mailbox_construct                                          
1001afd9  ti_sysbios_knl_Swi_run__I                                                 
1001b031  ti_sysbios_knl_Swi_schedule__I                                            
1001b085  ti_sysbios_knl_Swi_construct                                              
1001b0d5  ti_sysbios_knl_Swi_runLoop__I                                             
1001b125  ti_sysbios_knl_Task_construct                                             
1001b175  ti_sysbios_knl_Task_schedule__I                                           
1001b1c1  ti_sysbios_family_arm_m3_Hwi_Module_startup__E                            
1001b209  ti_sysbios_heaps_HeapMem_getStats__E                                      
1001b251  ti_sysbios_knl_Mailbox_Module_startup__E                                  
1001b299  ti_sysbios_family_arm_m3_Hwi_disableInterrupt__E                          
1001b2dd  ti_sysbios_family_arm_m3_Hwi_enableInterrupt__E                           
1001b321  ti_sysbios_knl_Swi_post__E                                                
1001b365  ti_sysbios_knl_Task_allBlockedFunction__I                                 
1001b3a9  ti_sysbios_knl_Task_yield__E                                              
1001b3ed  ti_sysbios_knl_Clock_create                                               
1001b429  ti_sysbios_knl_Task_exit__E                                               
1001b463  ti_sysbios_gates_GateHwi_Instance_init__E                                 
1001b465  ti_sysbios_family_arm_m3_Hwi_getStackInfo__E                              
1001b49d  ti_sysbios_family_arm_m3_TaskSupport_start__E                             
1001b4d5  ti_sysbios_heaps_HeapMem_Instance_init__E                                 
1001b50d  ti_sysbios_knl_Clock_Instance_init__E                                     
1001b545  ti_sysbios_heaps_HeapMem_init__I                                          
1001b579  ti_sysbios_knl_Clock_construct                                            
1001b5ad  ti_sysbios_knl_Semaphore_create                                           
1001b5e1  ti_sysbios_knl_Swi_restore__E                                             
1001b615  ti_sysbios_knl_Task_blockI__E                                             
1001b649  ti_sysbios_gates_GateMutex_Object__create__S                              
1001b679  ti_sysbios_gates_GateMutex_create                                         
1001b6a9  ti_sysbios_gates_GateMutex_enter__E                                       
1001b6d9  ti_sysbios_knl_Clock_getTicks__E                                          
1001b709  ti_sysbios_knl_Semaphore_construct                                        
1001b739  ti_sysbios_knl_Task_processVitalTaskFlag__I                               
1001b769  ti_sysbios_family_arm_cc26xx_Timer_postInit__I                            
1001b795  ti_sysbios_family_arm_cc26xx_Timer_startup__E                             
1001b795  ti_sysbios_knl_Clock_TimerProxy_startup__E                                
1001b7c1  ti_sysbios_family_arm_m3_Hwi_Object__get__S                               
1001b7ed  ti_sysbios_gates_GateMutex_construct                                      
1001b819  ti_sysbios_hal_Hwi_initStack                                              
1001b845  ti_sysbios_heaps_HeapMem_Object__create__S                                
1001b871  ti_sysbios_heaps_HeapMem_Object__get__S                                   
1001b89d  ti_sysbios_knl_Mailbox_Object__get__S                                     
1001b8c9  ti_sysbios_knl_Mailbox_postInit__I                                        
1001b8f5  ti_sysbios_knl_Queue_construct                                            
1001b921  ti_sysbios_knl_Queue_create                                               
1001b94d  ti_sysbios_knl_Semaphore_pendTimeout__I                                   
1001b979  ti_sysbios_knl_Swi_Object__get__S                                         
1001b9a5  ti_sysbios_knl_Task_unblockI__E                                           
1001b9d1  ti_sysbios_family_arm_cc26xx_TimestampProvider_get64__E                   
1001b9d1  xdc_runtime_Timestamp_SupportProxy_get64__E                               
1001b9d1  xdc_runtime_Timestamp_get64__E                                            
1001b9f9  ti_sysbios_hal_Hwi_Instance_init__E                                       
1001ba21  ti_sysbios_knl_Clock_addI__E                                              
1001ba49  ti_sysbios_knl_Task_restore__E                                            
1001ba71  ti_sysbios_family_arm_cc26xx_Timer_Module_startup__E                      
1001ba95  ti_sysbios_gates_GateHwi_Object__create__S                                
1001bab9  ti_sysbios_BIOS_RtsGateProxy_Object__delete__S                            
1001bab9  ti_sysbios_gates_GateMutex_Object__delete__S                              
1001bab9  ti_sysbios_heaps_HeapMem_Module_GateProxy_Object__delete__S               
1001badd  ti_sysbios_knl_Clock_Object__delete__S                                    
1001bb01  ti_sysbios_knl_Semaphore_Instance_init__E                                 
1001bb25  ti_sysbios_knl_Semaphore_Object__delete__S                                
1001bb49  ti_sysbios_family_arm_cc26xx_Timer_Module__startupDone__S                 
1001bb69  ti_sysbios_family_arm_cc26xx_TimestampProvider_Module_startup__E          
1001bb89  ti_sysbios_family_arm_m3_Hwi_Module__startupDone__S                       
1001bba9  ti_sysbios_family_arm_m3_Hwi_Object__delete__S                            
1001bba9  ti_sysbios_hal_Hwi_HwiProxy_Object__delete__S                             
1001bbc9  ti_sysbios_family_arm_m3_Hwi_excHandler__I                                
1001bbe9  ti_sysbios_gates_GateHwi_Handle__label__S                                 
1001bbe9  xdc_runtime_System_Module_GateProxy_Handle__label__S                      
1001bc09  ti_sysbios_gates_GateHwi_Object__delete__S                                
1001bc09  xdc_runtime_System_Module_GateProxy_Object__delete__S                     
1001bc29  ti_sysbios_BIOS_RtsGateProxy_Handle__label__S                             
1001bc29  ti_sysbios_gates_GateMutex_Handle__label__S                               
1001bc29  ti_sysbios_heaps_HeapMem_Module_GateProxy_Handle__label__S                
1001bc49  ti_sysbios_gates_GateMutex_Object__destruct__S                            
1001bc69  ti_sysbios_hal_Hwi_Object__delete__S                                      
1001bc89  ti_sysbios_heaps_HeapMem_Handle__label__S                                 
1001bc89  xdc_runtime_Memory_HeapProxy_Handle__label__S                             
1001bca9  ti_sysbios_heaps_HeapMem_Object__delete__S                                
1001bca9  xdc_runtime_Memory_HeapProxy_Object__delete__S                            
1001bcc9  ti_sysbios_knl_Clock_Module_startup__E                                    
1001bce9  ti_sysbios_knl_Clock_Object__destruct__S                                  
1001bd09  ti_sysbios_knl_Idle_run__E                                                
1001bd29  ti_sysbios_knl_Mailbox_Object__delete__S                                  
1001bd49  ti_sysbios_knl_Queue_Object__delete__S                                    
1001bd69  ti_sysbios_knl_Queue_Object__get__S                                       
1001bd89  ti_sysbios_knl_Semaphore_Object__destruct__S                              
1001bda9  ti_sysbios_knl_Swi_Object__delete__S                                      
1001bdc9  ti_sysbios_knl_Task_Object__delete__S                                     
1001bde9  ti_sysbios_knl_Task_Object__get__S                                        
1001be09  ti_sysbios_knl_Task_enter__I                                              
1001be29  ti_sysbios_knl_Task_restoreHwi__E                                         
1001be49  ti_sysbios_hal_Hwi_HwiProxy_create                                        
1001be67  ti_sysbios_knl_Clock_logTick__E                                           
1001be69  ti_sysbios_family_arm_m3_Hwi_Object__destruct__S                          
1001be85  ti_sysbios_family_arm_m3_Hwi_setPriority__E                               
1001bea1  ti_sysbios_gates_GateMutex_Instance_init__E                               
1001bebd  ti_sysbios_knl_Clock_scheduleNextTick__E                                  
1001bed9  ti_sysbios_knl_Mailbox_Object__destruct__S                                
1001bef5  ti_sysbios_knl_Queue_Object__destruct__S                                  
1001bf11  ti_sysbios_knl_Queue_get__E                                               
1001bf2d  ti_sysbios_knl_Queue_put__E                                               
1001bf49  ti_sysbios_knl_Swi_Object__destruct__S                                    
1001bf65  ti_sysbios_knl_Task_Object__destruct__S                                   
1001bf81  ti_sysbios_knl_Task_sleepTimeout__I                                       
1001bf9b  ti_sysbios_knl_Swi_Instance_finalize__E                                   
1001bf9d  ti_sysbios_gates_GateMutex_leave__E                                       
1001bfb5  ti_sysbios_knl_Task_unblock__E                                            
1001bfcd  ti_sysbios_knl_Clock_Instance_finalize__E                                 
1001bfe3  ti_sysbios_knl_Clock_start__E                                             
1001bff9  ti_sysbios_BIOS_getCpuFreq__E                                             
1001c00d  ti_sysbios_family_arm_m3_Hwi_switchFromBootStack__E                       
1001c021  ti_sysbios_hal_Hwi_Module_startup__E                                      
1001c035  ti_sysbios_BIOS_exit__E                                                   
1001c045  ti_sysbios_BIOS_setThreadType__E                                          
1001c055  ti_sysbios_BIOS_start__E                                                  
1001c065  ti_sysbios_family_arm_m3_Hwi_plug__E                                      
1001c075  ti_sysbios_gates_GateMutex_Instance_finalize__E                           
1001c085  ti_sysbios_hal_Hwi_HwiProxy_Object__create__S                             
1001c095  ti_sysbios_knl_Clock_TimerProxy_getCurrentTick__E                         
1001c0a5  ti_sysbios_knl_Clock_TimerProxy_getMaxTicks__E                            
1001c0b5  ti_sysbios_knl_Clock_TimerProxy_setNextTick__E                            
1001c0c5  ti_sysbios_knl_Semaphore_Instance_finalize__E                             
1001c0d5  ti_sysbios_knl_Swi_disable__E                                             
1001c0e5  ti_sysbios_knl_Swi_enabled__E                                             
1001c0f5  ti_sysbios_knl_Task_disable__E                                            
1001c105  ti_sysbios_heaps_HeapMem_restore__E                                       
1001c113  ti_sysbios_knl_Queue_empty__E                                             
1001c121  ti_sysbios_knl_Queue_remove__E                                            
1001c12f  ti_sysbios_family_arm_cc26xx_TimestampProvider_getFreq__E                 
1001c12f  xdc_runtime_Timestamp_SupportProxy_getFreq__E                             
1001c12f  xdc_runtime_Timestamp_getFreq__E                                          
1001c13d  ti_sysbios_family_arm_m3_Hwi_Params__init__S                              
1001c13d  ti_sysbios_hal_Hwi_HwiProxy_Params__init__S                               
1001c149  ti_sysbios_family_arm_m3_Hwi_disableFxn__E                                
1001c155  ti_sysbios_family_arm_m3_Hwi_enableFxn__E                                 
1001c161  ti_sysbios_family_arm_m3_TaskSupport_getStackAlignment__E                 
1001c16d  ti_sysbios_gates_GateHwi_enter__E                                         
1001c179  ti_sysbios_BIOS_RtsGateProxy_Params__init__S                              
1001c179  ti_sysbios_gates_GateMutex_Params__init__S                                
1001c179  ti_sysbios_heaps_HeapMem_Module_GateProxy_Params__init__S                 
1001c185  ti_sysbios_knl_Clock_Params__init__S                                      
1001c191  ti_sysbios_knl_Clock_getTimerHandle__E                                    
1001c19d  ti_sysbios_knl_Mailbox_Params__init__S                                    
1001c1a9  ti_sysbios_knl_Queue_dequeue__E                                           
1001c1b5  ti_sysbios_knl_Queue_enqueue__E                                           
1001c1c1  ti_sysbios_knl_Semaphore_Params__init__S                                  
1001c1cd  ti_sysbios_knl_Swi_Params__init__S                                        
1001c1d9  ti_sysbios_knl_Task_Params__init__S                                       
1001c1e5  ti_sysbios_knl_Task_self__E                                               
1001c1f1  ti_sysbios_hal_Hwi_Instance_finalize__E                                   
1001c1fb  ti_sysbios_family_arm_m3_Hwi_doSwiRestore__I                              
1001c203  ti_sysbios_family_arm_m3_Hwi_startup__E                                   
1001c20b  ti_sysbios_knl_Idle_loop__E                                               
1001c213  ti_sysbios_family_arm_m3_Hwi_doTaskRestore__I                             
1001c219  ti_sysbios_family_arm_m3_Hwi_restoreFxn__E                                
1001c21f  ti_sysbios_gates_GateHwi_leave__E                                         
1001c22b  ti_sysbios_knl_Queue_Instance_init__E                                     
1001c231  ti_sysbios_knl_Queue_elemClear__E                                         
1001c237  ti_sysbios_knl_Swi_Module_startup__E                                      
1001c23d  ti_sysbios_knl_Swi_startup__E                                             
1001c243  ti_sysbios_knl_Task_enable__E                                             
1001c249  ti_sysbios_BIOS_RtsGateProxy_enter__E                                     
1001c24d  ti_sysbios_BIOS_RtsGateProxy_leave__E                                     
1001c251  ti_sysbios_family_arm_cc26xx_Timer_getExpiredTicks__E                     
1001c255  ti_sysbios_family_arm_cc26xx_Timer_getPeriod__E                           
1001c259  ti_sysbios_family_arm_cc26xx_Timer_setPeriod__E                           
1001c25d  ti_sysbios_family_arm_m3_Hwi_delete                                       
1001c261  ti_sysbios_family_arm_m3_Hwi_destruct                                     
1001c265  ti_sysbios_family_arm_m3_TaskSupport_Module__startupDone__S               
1001c269  ti_sysbios_gates_GateHwi_query__E                                         
1001c269  xdc_runtime_System_Module_GateProxy_query__E                              
1001c26d  ti_sysbios_gates_GateMutex_delete                                         
1001c271  ti_sysbios_gates_GateMutex_destruct                                       
1001c275  ti_sysbios_BIOS_RtsGateProxy_query__E                                     
1001c275  ti_sysbios_gates_GateMutex_query__E                                       
1001c275  ti_sysbios_heaps_HeapMem_Module_GateProxy_query__E                        
1001c279  ti_sysbios_hal_Hwi_HwiProxy_Module__startupDone__S                        
1001c27d  ti_sysbios_hal_Hwi_HwiProxy_delete                                        
1001c281  ti_sysbios_hal_Hwi_HwiProxy_disableInterrupt__E                           
1001c281  ti_sysbios_hal_Hwi_disableInterrupt__E                                    
1001c285  ti_sysbios_hal_Hwi_HwiProxy_enableInterrupt__E                            
1001c285  ti_sysbios_hal_Hwi_enableInterrupt__E                                     
1001c289  ti_sysbios_hal_Hwi_HwiProxy_getStackInfo__E                               
1001c289  ti_sysbios_hal_Hwi_getStackInfo__E                                        
1001c28d  ti_sysbios_hal_Hwi_HwiProxy_startup__E                                    
1001c28d  ti_sysbios_hal_Hwi_startup__E                                             
1001c291  ti_sysbios_hal_Hwi_HwiProxy_switchFromBootStack__E                        
1001c295  ti_sysbios_hal_Hwi_delete                                                 
1001c299  ti_sysbios_hal_Hwi_switchFromBootStack__E                                 
1001c29d  ti_sysbios_heaps_HeapMem_Module_GateProxy_enter__E                        
1001c2a1  ti_sysbios_heaps_HeapMem_Module_GateProxy_leave__E                        
1001c2a5  ti_sysbios_heaps_HeapMem_isBlocking__E                                    
1001c2a9  ti_sysbios_knl_Clock_TimerProxy_Module__startupDone__S                    
1001c2ad  ti_sysbios_knl_Clock_TimerProxy_getExpiredTicks__E                        
1001c2b1  ti_sysbios_knl_Clock_TimerProxy_getPeriod__E                              
1001c2b5  ti_sysbios_knl_Clock_delete                                               
1001c2b9  ti_sysbios_knl_Clock_destruct                                             
1001c2bd  ti_sysbios_knl_Clock_removeI__E                                           
1001c2c1  ti_sysbios_knl_Clock_setTimeout__E                                        
1001c2c5  ti_sysbios_knl_Mailbox_delete                                             
1001c2c9  ti_sysbios_knl_Mailbox_destruct                                           
1001c2cd  ti_sysbios_knl_Queue_delete                                               
1001c2d1  ti_sysbios_knl_Queue_destruct                                             
1001c2d5  ti_sysbios_knl_Queue_head__E                                              
1001c2d9  ti_sysbios_knl_Queue_next__E                                              
1001c2dd  ti_sysbios_knl_Semaphore_delete                                           
1001c2e1  ti_sysbios_knl_Semaphore_destruct                                         
1001c2e5  ti_sysbios_knl_Swi_delete                                                 
1001c2e9  ti_sysbios_knl_Swi_destruct                                               
1001c2ed  ti_sysbios_knl_Swi_postInit__I                                            
1001c2f1  ti_sysbios_knl_Task_SupportProxy_Module__startupDone__S                   
1001c2f5  ti_sysbios_knl_Task_SupportProxy_getStackAlignment__E                     
1001c2f9  ti_sysbios_knl_Task_SupportProxy_start__E                                 
1001c2fd  ti_sysbios_knl_Task_SupportProxy_swap__E                                  
1001c301  ti_sysbios_knl_Task_delete                                                
1001c305  ti_sysbios_knl_Task_destruct                                              
1001c309  ti_sysbios_knl_Task_startup__E                                            
1001c30d  xdc_runtime_Startup_startMods__I                                          
1001c405  xdc_runtime_Core_createObject__I                                          
1001c487  xdc_runtime_Error_policySpin__E                                           
1001c489  xdc_runtime_Memory_alloc__E                                               
1001c4f9  xdc_runtime_Core_deleteObject__I                                          
1001c559  xdc_runtime_Startup_exec__E                                               
1001c5a9  xdc_runtime_Assert_raise__I                                               
1001c5f1  xdc_runtime_Core_assignParams__I                                          
1001c639  xdc_runtime_Core_constructObject__I                                       
1001c681  xdc_runtime_System_atexit__E                                              
1001c6b9  xdc_runtime_System_processAtExit__E                                       
1001c6ed  xdc_runtime_Core_assignLabel__I                                           
1001c71d  xdc_runtime_Text_cordText__E                                              
1001c749  xdc_runtime_System_abort__E                                               
1001c769  xdc_runtime_Error_raiseX__E                                               
1001c785  xdc_runtime_Memory_valloc__E                                              
1001c7a1  xdc_runtime_Core_destructObject__I                                        
1001c7b9  xdc_runtime_Error_check__E                                                
1001c7d1  xdc_runtime_System_exit__E                                                
1001c7e9  xdc_runtime_Text_ropeText__E                                              
1001c801  xdc_runtime_Memory_free__E                                                
1001c811  xdc_runtime_SysCallback_abort__E                                          
1001c821  xdc_runtime_SysCallback_exit__E                                           
1001c831  xdc_runtime_Timestamp_SupportProxy_get32__E                               
1001c831  xdc_runtime_Timestamp_get32__E                                            
1001c841  xdc_runtime_Error_init__E                                                 
1001c84d  xdc_runtime_Memory_calloc__E                                              
1001c859  xdc_runtime_Memory_getMaxDefaultTypeAlign__E                              
1001c879  xdc_runtime_Gate_leaveSystem__E                                           
1001c87f  xdc_runtime_System_Module_startup__E                                      
1001c885  xdc_runtime_Gate_enterSystem__E                                           
1001c889  xdc_runtime_Memory_HeapProxy_alloc__E                                     
1001c88d  xdc_runtime_Memory_HeapProxy_free__E                                      
1001c891  xdc_runtime_System_Module_GateProxy_enter__E                              
1001c895  xdc_runtime_System_Module_GateProxy_leave__E                              
1001c899  xdc_runtime_System_abortSpin__E                                           
1001c89b  xdc_runtime_System_exitSpin__E                                            
1001c89d  ti_sysbios_family_arm_m3_Hwi_dispatch__I                                  
1001c96d  ti_sysbios_family_arm_m3_TaskSupport_buildTaskStack                       
1001c9b9  ti_sysbios_family_arm_m3_Hwi_initStacks__E                                
1001ca01  ti_sysbios_family_arm_m3_Hwi_excHandlerAsm__I                             
1001ca21  ti_sysbios_family_xxx_Hwi_switchAndRunFunc                                
1001ca3f  ti_sysbios_family_arm_m3_Hwi_pendSV__I                                    
1001ca57  ti_sysbios_family_arm_m3_Hwi_return                                       
1001ca59  ti_sysbios_family_arm_m3_TaskSupport_glue                                 
1001ca69  ti_sysbios_family_arm_m3_TaskSupport_swap__E                              
1001ca71  ti_sysbios_knl_Task_swapReturn                                            
1001ca9b  ti_sysbios_rom_cortexm_cc26xx_CC26xx_getRevision__E                       
20000000  ti_sysbios_family_arm_m3_Hwi_ramVectors                                   
20000100  ti_sysbios_knl_Task_Module__state__V                                      
20000144  ti_sysbios_family_arm_m3_Hwi_Module__state__V                             
20000178  ti_sysbios_knl_Clock_Module__state__V                                     
200001a4  ti_sysbios_BIOS_Module__state__V                                          
200001c8  ti_sysbios_knl_Swi_Module__state__V                                       
200001e4  ti_sysbios_family_arm_cc26xx_Timer_Module__state__V                       
200001ec  ti_sysbios_family_arm_cc26xx_TimestampProvider_Module__state__V           
200001f0  xdc_runtime_Startup_Module__state__V                                      
200001f8  xdc_runtime_System_Module__state__V                                       
20000200  xdc_runtime_Memory_Module__state__V                                       
20000208  buffer_write_pos                                                          
20000209  tx_byte                                                                   
2000020a  txRequestPending                                                          
2000020b  txRequestEvent                                                            
2000020c  txRequestResponse                                                         
2000020d  pendingLedRequest                                                         
2000020e  latestLedState                                                            
2000020f  rxTxBusy                                                                  
20000218  boardSemaphoreHandle                                                      
2000021c  appKeyChangeHandler                                                       
20000220  keyboardPinsHandler                                                       
20000240  keyboardPinsCfg                                                           
2000024c  keyboardPins                                                              
20000258  boardSemaphore                                                            
20000274  keyboardTaskParams                                                        
200002b0  keyboardTask                                                              
20000300  board_kb_buffer                                                           
20000380  ps2ToUsbTable                                                             
20000580  keyboardTaskStack                                                         
20000804  selfEntity                                                                
200008b0  hidDeviceTask                                                             
20000984  hidDeviceTaskStack                                                        
20000b98  linkDBNumConns                                                            
20000cac  gapRoleTask                                                               
20000cfc  gapRoleTaskStack                                                          
20000f08  dispHandle                                                                
20000f58  hidEmuKbdTask                                                             
20000fa8  hidEmuKbdTaskStack                                                        
2000122c  appAssertCback                                                            
200014a8  hidReportMapLen                                                           
200014a9  hidProtocolMode                                                           
200018b8  PowerCC26XX_module                                                        
200019c4  ICall_dispatcher                                                          
200019cc  ICall_enterCriticalSection                                                
200019d0  ICall_leaveCriticalSection                                                
200019e8  HEAPMGR_SIZE                                                              
20001b48  rfRegTbl                                                                  
20001b98  ti_sysbios_knl_Task_Object__table__V                                      
20001be4  main_func_sp                                                              
20001be8  ti_sysbios_family_arm_cc26xx_Timer_Object__table__V                       
20001c30  ti_sysbios_gates_GateMutex_Object__table__V                               
20001c68  ti_sysbios_knl_Swi_Module_State_0_readyQ__A                               
20001c98  ti_sysbios_knl_Swi_Object__table__V                                       
20001cc8  ti_sysbios_knl_Task_Module_State_0_readyQ__A                              
20001cf8  user0Cfg                                                                  
20001d20  ti_sysbios_knl_Clock_Object__table__V                                     
20001d40  ledPinHandler                                                             
20001d44  ledPinTable                                                               
20001d50  ledPin                                                                    
20001d5c  ti_sysbios_family_arm_m3_Hwi_Object__table__V                             
20001d74  ti_sysbios_heaps_HeapMem_Object__table__V                                 
20001d8c  __TI_cleanup_ptr                                                          
20001d90  __TI_dtors_ptr                                                            
20001d94  __TI_enable_exit_profile_output                                           
20001d98  lastAppOpcodeSent                                                         
20001d9c  pfnBMAlloc                                                                
20001da0  pfnBMFree                                                                 
20001db0  xdc_runtime_SysMin_Module__state__V                                       
20001dd0  _lock                                                                     
20001dd4  _unlock                                                                   
20001de0  ti_sysbios_family_arm_m3_Hwi_Module__root__V                              
20001de8  ti_sysbios_gates_GateHwi_Module__root__V                                  
20001df0  ti_sysbios_gates_GateMutex_Module__root__V                                
20001df8  ti_sysbios_hal_Hwi_Module__root__V                                        
20001e00  ti_sysbios_heaps_HeapMem_Module__root__V                                  
20001e08  ti_sysbios_knl_Clock_Module__root__V                                      
20001e10  ti_sysbios_knl_Mailbox_Module__root__V                                    
20001e18  ti_sysbios_knl_Queue_Module__root__V                                      
20001e20  ti_sysbios_knl_Semaphore_Module__root__V                                  
20001e28  ti_sysbios_knl_Swi_Module__root__V                                        
20001e30  ti_sysbios_knl_Task_Module__root__V                                       
20001e38  xdc_runtime_Registry_Module__state__V                                     
20001e40  ti_sysbios_family_arm_m3_Hwi_Module_State_0_excContext__A                 
20001e44  ti_sysbios_family_arm_m3_Hwi_Module_State_0_excStack__A                   
20001e48  ti_sysbios_knl_Task_Module_State_0_idleTask__A                            
20001e4e  ti_sysbios_family_arm_m3_Hwi_Module_State_0_excActive__A                  
20001e58  ti_sysbios_heaps_HeapMem_Instance_State_0_buf__A                          
200024d8  xdc_runtime_SysMin_Module_State_0_outbuf__A                               
200028d8  ti_sysbios_knl_Task_Instance_State_0_stack__A                             
20002ad8  __CIOBUF_                                                                 
20002bf8  PIN_NumPins                                                               
20002c8c  PIN_HandleTable                                                           
20002d08  ti_sysbios_family_arm_m3_Hwi_dispatchTable                                
20002e04  driverlib_release_0_45566                                                 
20002e05  heapStart                                                                 
20003f68  __stack                                                                   
20003f68  heapEnd                                                                   
20004368  __STACK_END                                                               
20004368  __STACK_TOP                                                               
20004f2c  A4_rw                                                                     
20004f2c  COMMON_RAM_BASE_ADDR                                                      
20004f40  P2_rw                                                                     
20004f40  P2_s0                                                                     
20004f40  eccRom_windowSize                                                         
20004f44  eccRom_workzone                                                           
20004f48  eccRom_param_p                                                            
20004f4c  eccRom_param_r                                                            
20004f50  eccRom_param_a                                                            
20004f54  inScalar                                                                  
20004f58  inPointX                                                                  
20004f5c  inPointY                                                                  
20004f60  outPointX                                                                 
20004f64  outPointY                                                                 
20004f68  SCAL                                                                      
20004f6c  EXPX                                                                      
20004f70  EXPY                                                                      
20004f74  EXPZ                                                                      
20004f78  EXPW                                                                      
20004f7c  ACCX                                                                      
20004f80  ACCY                                                                      
20004f84  ACCZ                                                                      
20004f88  TMP1                                                                      
20004f8c  TMP2                                                                      
20004f90  TMP3                                                                      
20004f94  TMP4                                                                      
20004f98  TMP5                                                                      
20004f9c  TMP6                                                                      
20004fa0  eccRom_param_Gx                                                           
20004fa4  eccRom_param_Gy                                                           
20004fa8  eccRom_param_b                                                            
20004fac  P2_zi                                                                     
20004fac  ratChanInfo                                                               
20004fcc  fwInfoCmd                                                                 
20004fd8  MSBMOD                                                                    
20004fdc  aux64                                                                     
20004fe4  MOD                                                                       
20004fe8  LEN                                                                       
20004ffc  pSspAesEncrypt_Sw                                                         
e000e000  ti_sysbios_family_arm_m3_Hwi_nvic                                         
ffffffff  __TI_pprof_out_hndl                                                       
ffffffff  __TI_prof_data_size                                                       
ffffffff  __TI_prof_data_start                                                      
ffffffff  __binit__                                                                 
ffffffff  __c_args__                                                                
ffffffff  binit                                                                     
UNDEFED   HwiP_restore                                                              
UNDEFED   SHT$$INIT_ARRAY$$Base                                                     
UNDEFED   SHT$$INIT_ARRAY$$Limit                                                    
UNDEFED   ti_sysbios_BIOS_RtsGateProxy_Handle__label__S__mangled__                  
UNDEFED   ti_sysbios_BIOS_RtsGateProxy_Object__delete__S__mangled__                 
UNDEFED   ti_sysbios_BIOS_RtsGateProxy_Params__init__S__mangled__                   
UNDEFED   ti_sysbios_BIOS_RtsGateProxy_query__E__mangled__                          
UNDEFED   ti_sysbios_hal_Hwi_HwiProxy_Module__startupDone__S__mangled__             
UNDEFED   ti_sysbios_hal_Hwi_HwiProxy_Object__delete__S__mangled__                  
UNDEFED   ti_sysbios_hal_Hwi_HwiProxy_Params__init__S__mangled__                    
UNDEFED   ti_sysbios_hal_Hwi_HwiProxy_disableInterrupt__E__mangled__                
UNDEFED   ti_sysbios_hal_Hwi_HwiProxy_enableInterrupt__E__mangled__                 
UNDEFED   ti_sysbios_hal_Hwi_HwiProxy_getStackInfo__E__mangled__                    
UNDEFED   ti_sysbios_hal_Hwi_HwiProxy_startup__E__mangled__                         
UNDEFED   ti_sysbios_hal_Hwi_HwiProxy_switchFromBootStack__E__mangled__             
UNDEFED   ti_sysbios_hal_Hwi_disableInterrupt__E                                    
UNDEFED   ti_sysbios_hal_Hwi_enableInterrupt__E                                     
UNDEFED   ti_sysbios_hal_Hwi_getStackInfo__E                                        
UNDEFED   ti_sysbios_hal_Hwi_startup__E                                             
UNDEFED   ti_sysbios_hal_Hwi_switchFromBootStack__E                                 
UNDEFED   ti_sysbios_heaps_HeapMem_Module_GateProxy_Handle__label__S__mangled__     
UNDEFED   ti_sysbios_heaps_HeapMem_Module_GateProxy_Object__delete__S__mangled__    
UNDEFED   ti_sysbios_heaps_HeapMem_Module_GateProxy_Params__init__S__mangled__      
UNDEFED   ti_sysbios_heaps_HeapMem_Module_GateProxy_query__E__mangled__             
UNDEFED   ti_sysbios_knl_Clock_TimerProxy_Module__startupDone__S__mangled__         
UNDEFED   ti_sysbios_knl_Clock_TimerProxy_startup__E__mangled__                     
UNDEFED   ti_sysbios_knl_Task_SupportProxy_Module__startupDone__S__mangled__        
UNDEFED   ti_sysbios_knl_Task_SupportProxy_getStackAlignment__E__mangled__          
UNDEFED   ti_sysbios_knl_Task_SupportProxy_start__E__mangled__                      
UNDEFED   ti_sysbios_knl_Task_SupportProxy_swap__E__mangled__                       
UNDEFED   xdc_runtime_Main_Module_GateProxy_Handle__label__S                        
UNDEFED   xdc_runtime_Main_Module_GateProxy_Object__delete__S                       
UNDEFED   xdc_runtime_Main_Module_GateProxy_query__E                                
UNDEFED   xdc_runtime_Memory_HeapProxy_Handle__label__S__mangled__                  
UNDEFED   xdc_runtime_Memory_HeapProxy_Object__delete__S__mangled__                 
UNDEFED   xdc_runtime_System_Module_GateProxy_Handle__label__S__mangled__           
UNDEFED   xdc_runtime_System_Module_GateProxy_Object__delete__S__mangled__          
UNDEFED   xdc_runtime_System_Module_GateProxy_query__E__mangled__                   
UNDEFED   xdc_runtime_Timestamp_SupportProxy_get64__E__mangled__                    
UNDEFED   xdc_runtime_Timestamp_SupportProxy_getFreq__E__mangled__                  
UNDEFED   xdc_runtime_Timestamp_get32__E                                            
UNDEFED   xdc_runtime_Timestamp_get64__E                                            
UNDEFED   xdc_runtime_Timestamp_getFreq__E                                          

[1122 symbols]
